
/home/ascii_easy/ascii_easy:     file format elf32-i386


Disassembly of section .init:

0804834c <_init>:
 804834c:	53                   	push   %ebx
 804834d:	83 ec 08             	sub    $0x8,%esp
 8048350:	e8 db 00 00 00       	call   8048430 <__x86.get_pc_thunk.bx>
 8048355:	81 c3 ab 1c 00 00    	add    $0x1cab,%ebx
 804835b:	8b 83 fc ff ff ff    	mov    -0x4(%ebx),%eax
 8048361:	85 c0                	test   %eax,%eax
 8048363:	74 05                	je     804836a <_init+0x1e>
 8048365:	e8 86 00 00 00       	call   80483f0 <__libc_start_main@plt+0x10>
 804836a:	83 c4 08             	add    $0x8,%esp
 804836d:	5b                   	pop    %ebx
 804836e:	c3                   	ret    

Disassembly of section .plt:

08048370 <strcpy@plt-0x10>:
 8048370:	ff 35 04 a0 04 08    	pushl  0x804a004
 8048376:	ff 25 08 a0 04 08    	jmp    *0x804a008
 804837c:	00 00                	add    %al,(%eax)
	...

08048380 <strcpy@plt>:
 8048380:	ff 25 0c a0 04 08    	jmp    *0x804a00c
 8048386:	68 00 00 00 00       	push   $0x0
 804838b:	e9 e0 ff ff ff       	jmp    8048370 <_init+0x24>

08048390 <puts@plt>:
 8048390:	ff 25 10 a0 04 08    	jmp    *0x804a010
 8048396:	68 08 00 00 00       	push   $0x8
 804839b:	e9 d0 ff ff ff       	jmp    8048370 <_init+0x24>

080483a0 <__fxstat@plt>:
 80483a0:	ff 25 14 a0 04 08    	jmp    *0x804a014
 80483a6:	68 10 00 00 00       	push   $0x10
 80483ab:	e9 c0 ff ff ff       	jmp    8048370 <_init+0x24>

080483b0 <open@plt>:
 80483b0:	ff 25 18 a0 04 08    	jmp    *0x804a018
 80483b6:	68 18 00 00 00       	push   $0x18
 80483bb:	e9 b0 ff ff ff       	jmp    8048370 <_init+0x24>

080483c0 <mmap@plt>:
 80483c0:	ff 25 1c a0 04 08    	jmp    *0x804a01c
 80483c6:	68 20 00 00 00       	push   $0x20
 80483cb:	e9 a0 ff ff ff       	jmp    8048370 <_init+0x24>

080483d0 <strlen@plt>:
 80483d0:	ff 25 20 a0 04 08    	jmp    *0x804a020
 80483d6:	68 28 00 00 00       	push   $0x28
 80483db:	e9 90 ff ff ff       	jmp    8048370 <_init+0x24>

080483e0 <__libc_start_main@plt>:
 80483e0:	ff 25 24 a0 04 08    	jmp    *0x804a024
 80483e6:	68 30 00 00 00       	push   $0x30
 80483eb:	e9 80 ff ff ff       	jmp    8048370 <_init+0x24>

Disassembly of section .plt.got:

080483f0 <.plt.got>:
 80483f0:	ff 25 fc 9f 04 08    	jmp    *0x8049ffc
 80483f6:	66 90                	xchg   %ax,%ax

Disassembly of section .text:

08048400 <_start>:
 8048400:	31 ed                	xor    %ebp,%ebp
 8048402:	5e                   	pop    %esi
 8048403:	89 e1                	mov    %esp,%ecx
 8048405:	83 e4 f0             	and    $0xfffffff0,%esp
 8048408:	50                   	push   %eax
 8048409:	54                   	push   %esp
 804840a:	52                   	push   %edx
 804840b:	68 d0 86 04 08       	push   $0x80486d0
 8048410:	68 70 86 04 08       	push   $0x8048670
 8048415:	51                   	push   %ecx
 8048416:	56                   	push   %esi
 8048417:	68 33 85 04 08       	push   $0x8048533
 804841c:	e8 bf ff ff ff       	call   80483e0 <__libc_start_main@plt>
 8048421:	f4                   	hlt    
 8048422:	66 90                	xchg   %ax,%ax
 8048424:	66 90                	xchg   %ax,%ax
 8048426:	66 90                	xchg   %ax,%ax
 8048428:	66 90                	xchg   %ax,%ax
 804842a:	66 90                	xchg   %ax,%ax
 804842c:	66 90                	xchg   %ax,%ax
 804842e:	66 90                	xchg   %ax,%ax

08048430 <__x86.get_pc_thunk.bx>:
 8048430:	8b 1c 24             	mov    (%esp),%ebx
 8048433:	c3                   	ret    
 8048434:	66 90                	xchg   %ax,%ax
 8048436:	66 90                	xchg   %ax,%ax
 8048438:	66 90                	xchg   %ax,%ax
 804843a:	66 90                	xchg   %ax,%ax
 804843c:	66 90                	xchg   %ax,%ax
 804843e:	66 90                	xchg   %ax,%ax

08048440 <deregister_tm_clones>:
 8048440:	b8 33 a0 04 08       	mov    $0x804a033,%eax
 8048445:	2d 30 a0 04 08       	sub    $0x804a030,%eax
 804844a:	83 f8 06             	cmp    $0x6,%eax
 804844d:	76 1a                	jbe    8048469 <deregister_tm_clones+0x29>
 804844f:	b8 00 00 00 00       	mov    $0x0,%eax
 8048454:	85 c0                	test   %eax,%eax
 8048456:	74 11                	je     8048469 <deregister_tm_clones+0x29>
 8048458:	55                   	push   %ebp
 8048459:	89 e5                	mov    %esp,%ebp
 804845b:	83 ec 14             	sub    $0x14,%esp
 804845e:	68 30 a0 04 08       	push   $0x804a030
 8048463:	ff d0                	call   *%eax
 8048465:	83 c4 10             	add    $0x10,%esp
 8048468:	c9                   	leave  
 8048469:	f3 c3                	repz ret 
 804846b:	90                   	nop
 804846c:	8d 74 26 00          	lea    0x0(%esi,%eiz,1),%esi

08048470 <register_tm_clones>:
 8048470:	b8 30 a0 04 08       	mov    $0x804a030,%eax
 8048475:	2d 30 a0 04 08       	sub    $0x804a030,%eax
 804847a:	c1 f8 02             	sar    $0x2,%eax
 804847d:	89 c2                	mov    %eax,%edx
 804847f:	c1 ea 1f             	shr    $0x1f,%edx
 8048482:	01 d0                	add    %edx,%eax
 8048484:	d1 f8                	sar    %eax
 8048486:	74 1b                	je     80484a3 <register_tm_clones+0x33>
 8048488:	ba 00 00 00 00       	mov    $0x0,%edx
 804848d:	85 d2                	test   %edx,%edx
 804848f:	74 12                	je     80484a3 <register_tm_clones+0x33>
 8048491:	55                   	push   %ebp
 8048492:	89 e5                	mov    %esp,%ebp
 8048494:	83 ec 10             	sub    $0x10,%esp
 8048497:	50                   	push   %eax
 8048498:	68 30 a0 04 08       	push   $0x804a030
 804849d:	ff d2                	call   *%edx
 804849f:	83 c4 10             	add    $0x10,%esp
 80484a2:	c9                   	leave  
 80484a3:	f3 c3                	repz ret 
 80484a5:	8d 74 26 00          	lea    0x0(%esi,%eiz,1),%esi
 80484a9:	8d bc 27 00 00 00 00 	lea    0x0(%edi,%eiz,1),%edi

080484b0 <__do_global_dtors_aux>:
 80484b0:	80 3d 30 a0 04 08 00 	cmpb   $0x0,0x804a030
 80484b7:	75 13                	jne    80484cc <__do_global_dtors_aux+0x1c>
 80484b9:	55                   	push   %ebp
 80484ba:	89 e5                	mov    %esp,%ebp
 80484bc:	83 ec 08             	sub    $0x8,%esp
 80484bf:	e8 7c ff ff ff       	call   8048440 <deregister_tm_clones>
 80484c4:	c6 05 30 a0 04 08 01 	movb   $0x1,0x804a030
 80484cb:	c9                   	leave  
 80484cc:	f3 c3                	repz ret 
 80484ce:	66 90                	xchg   %ax,%ax

080484d0 <frame_dummy>:
 80484d0:	b8 10 9f 04 08       	mov    $0x8049f10,%eax
 80484d5:	8b 10                	mov    (%eax),%edx
 80484d7:	85 d2                	test   %edx,%edx
 80484d9:	75 05                	jne    80484e0 <frame_dummy+0x10>
 80484db:	eb 93                	jmp    8048470 <register_tm_clones>
 80484dd:	8d 76 00             	lea    0x0(%esi),%esi
 80484e0:	ba 00 00 00 00       	mov    $0x0,%edx
 80484e5:	85 d2                	test   %edx,%edx
 80484e7:	74 f2                	je     80484db <frame_dummy+0xb>
 80484e9:	55                   	push   %ebp
 80484ea:	89 e5                	mov    %esp,%ebp
 80484ec:	83 ec 14             	sub    $0x14,%esp
 80484ef:	50                   	push   %eax
 80484f0:	ff d2                	call   *%edx
 80484f2:	83 c4 10             	add    $0x10,%esp
 80484f5:	c9                   	leave  
 80484f6:	e9 75 ff ff ff       	jmp    8048470 <register_tm_clones>

080484fb <is_ascii>:
 80484fb:	55                   	push   %ebp
 80484fc:	89 e5                	mov    %esp,%ebp
 80484fe:	83 7d 08 1f          	cmpl   $0x1f,0x8(%ebp)
 8048502:	7e 0d                	jle    8048511 <is_ascii+0x16>
 8048504:	83 7d 08 7f          	cmpl   $0x7f,0x8(%ebp)
 8048508:	7f 07                	jg     8048511 <is_ascii+0x16>
 804850a:	b8 01 00 00 00       	mov    $0x1,%eax
 804850f:	eb 05                	jmp    8048516 <is_ascii+0x1b>
 8048511:	b8 00 00 00 00       	mov    $0x0,%eax
 8048516:	5d                   	pop    %ebp
 8048517:	c3                   	ret    

08048518 <vuln>:
 8048518:	55                   	push   %ebp
 8048519:	89 e5                	mov    %esp,%ebp
 804851b:	83 ec 28             	sub    $0x28,%esp
 804851e:	83 ec 08             	sub    $0x8,%esp
 8048521:	ff 75 08             	pushl  0x8(%ebp)	# p
 8048524:	8d 45 e4             	lea    -0x1c(%ebp),%eax
 8048527:	50                   	push   %eax		# buf
 8048528:	e8 53 fe ff ff       	call   8048380 <strcpy@plt>
 804852d:	83 c4 10             	add    $0x10,%esp
 8048530:	90                   	nop
 8048531:	c9                   	leave  
 8048532:	c3                   	ret    

08048533 <main>:
 8048533:	8d 4c 24 04          	lea    0x4(%esp),%ecx
 8048537:	83 e4 f0             	and    $0xfffffff0,%esp
 804853a:	ff 71 fc             	pushl  -0x4(%ecx)
 804853d:	55                   	push   %ebp
 804853e:	89 e5                	mov    %esp,%ebp
 8048540:	53                   	push   %ebx
 8048541:	51                   	push   %ecx
 8048542:	83 ec 70             	sub    $0x70,%esp
 8048545:	89 cb                	mov    %ecx,%ebx
 8048547:	83 3b 02             	cmpl   $0x2,(%ebx)
 804854a:	74 15                	je     8048561 <main+0x2e>
 804854c:	83 ec 0c             	sub    $0xc,%esp
 804854f:	68 20 87 04 08       	push   $0x8048720
 8048554:	e8 37 fe ff ff       	call   8048390 <puts@plt>
 8048559:	83 c4 10             	add    $0x10,%esp
 804855c:	e9 01 01 00 00       	jmp    8048662 <main+0x12f>
 8048561:	83 ec 08             	sub    $0x8,%esp
 8048564:	6a 00                	push   $0x0
 8048566:	68 40 87 04 08       	push   $0x8048740
 804856b:	e8 40 fe ff ff       	call   80483b0 <open@plt>
 8048570:	83 c4 10             	add    $0x10,%esp
 8048573:	89 45 f0             	mov    %eax,-0x10(%ebp)
 8048576:	83 ec 08             	sub    $0x8,%esp
 8048579:	8d 45 94             	lea    -0x6c(%ebp),%eax
 804857c:	50                   	push   %eax
 804857d:	ff 75 f0             	pushl  -0x10(%ebp)
 8048580:	e8 5b 01 00 00       	call   80486e0 <__fstat>
 8048585:	83 c4 10             	add    $0x10,%esp
 8048588:	85 c0                	test   %eax,%eax
 804858a:	79 15                	jns    80485a1 <main+0x6e>
 804858c:	83 ec 0c             	sub    $0xc,%esp
 804858f:	68 5e 87 04 08       	push   $0x804875e
 8048594:	e8 f7 fd ff ff       	call   8048390 <puts@plt>
 8048599:	83 c4 10             	add    $0x10,%esp
 804859c:	e9 c1 00 00 00       	jmp    8048662 <main+0x12f>
 80485a1:	8b 45 c0             	mov    -0x40(%ebp),%eax
 80485a4:	89 45 ec             	mov    %eax,-0x14(%ebp)
 80485a7:	83 ec 08             	sub    $0x8,%esp
 80485aa:	6a 00                	push   $0x0
 80485ac:	ff 75 f0             	pushl  -0x10(%ebp)
 80485af:	6a 02                	push   $0x2
 80485b1:	6a 07                	push   $0x7
 80485b3:	ff 75 ec             	pushl  -0x14(%ebp)
 80485b6:	68 00 e0 55 55       	push   $0x5555e000
 80485bb:	e8 00 fe ff ff       	call   80483c0 <mmap@plt>
 80485c0:	83 c4 20             	add    $0x20,%esp
 80485c3:	3d 00 e0 55 55       	cmp    $0x5555e000,%eax
 80485c8:	74 15                	je     80485df <main+0xac>
 80485ca:	83 ec 0c             	sub    $0xc,%esp
 80485cd:	68 76 87 04 08       	push   $0x8048776
 80485d2:	e8 b9 fd ff ff       	call   8048390 <puts@plt>
 80485d7:	83 c4 10             	add    $0x10,%esp
 80485da:	e9 83 00 00 00       	jmp    8048662 <main+0x12f>
 80485df:	c7 45 f4 00 00 00 00 	movl   $0x0,-0xc(%ebp)
 80485e6:	eb 39                	jmp    8048621 <main+0xee>
 80485e8:	8b 43 04             	mov    0x4(%ebx),%eax
 80485eb:	83 c0 04             	add    $0x4,%eax
 80485ee:	8b 10                	mov    (%eax),%edx
 80485f0:	8b 45 f4             	mov    -0xc(%ebp),%eax
 80485f3:	01 d0                	add    %edx,%eax
 80485f5:	0f b6 00             	movzbl (%eax),%eax
 80485f8:	0f be c0             	movsbl %al,%eax
 80485fb:	83 ec 0c             	sub    $0xc,%esp
 80485fe:	50                   	push   %eax
 80485ff:	e8 f7 fe ff ff       	call   80484fb <is_ascii>
 8048604:	83 c4 10             	add    $0x10,%esp
 8048607:	85 c0                	test   %eax,%eax
 8048609:	75 12                	jne    804861d <main+0xea>
 804860b:	83 ec 0c             	sub    $0xc,%esp
 804860e:	68 8e 87 04 08       	push   $0x804878e
 8048613:	e8 78 fd ff ff       	call   8048390 <puts@plt>
 8048618:	83 c4 10             	add    $0x10,%esp
 804861b:	eb 45                	jmp    8048662 <main+0x12f>
 804861d:	83 45 f4 01          	addl   $0x1,-0xc(%ebp)
 8048621:	8b 43 04             	mov    0x4(%ebx),%eax
 8048624:	83 c0 04             	add    $0x4,%eax
 8048627:	8b 00                	mov    (%eax),%eax
 8048629:	83 ec 0c             	sub    $0xc,%esp
 804862c:	50                   	push   %eax
 804862d:	e8 9e fd ff ff       	call   80483d0 <strlen@plt>
 8048632:	83 c4 10             	add    $0x10,%esp
 8048635:	89 c2                	mov    %eax,%edx
 8048637:	8b 45 f4             	mov    -0xc(%ebp),%eax
 804863a:	39 c2                	cmp    %eax,%edx
 804863c:	77 aa                	ja     80485e8 <main+0xb5>
 804863e:	83 ec 0c             	sub    $0xc,%esp
 8048641:	68 a7 87 04 08       	push   $0x80487a7
 8048646:	e8 45 fd ff ff       	call   8048390 <puts@plt>
 804864b:	83 c4 10             	add    $0x10,%esp
 804864e:	8b 43 04             	mov    0x4(%ebx),%eax
 8048651:	83 c0 04             	add    $0x4,%eax
 8048654:	8b 00                	mov    (%eax),%eax
 8048656:	83 ec 0c             	sub    $0xc,%esp
 8048659:	50                   	push   %eax
 804865a:	e8 b9 fe ff ff       	call   8048518 <vuln>
 804865f:	83 c4 10             	add    $0x10,%esp
 8048662:	8d 65 f8             	lea    -0x8(%ebp),%esp
 8048665:	59                   	pop    %ecx
 8048666:	5b                   	pop    %ebx
 8048667:	5d                   	pop    %ebp
 8048668:	8d 61 fc             	lea    -0x4(%ecx),%esp
 804866b:	c3                   	ret    
 804866c:	66 90                	xchg   %ax,%ax
 804866e:	66 90                	xchg   %ax,%ax

08048670 <__libc_csu_init>:
 8048670:	55                   	push   %ebp
 8048671:	57                   	push   %edi
 8048672:	56                   	push   %esi
 8048673:	53                   	push   %ebx
 8048674:	e8 b7 fd ff ff       	call   8048430 <__x86.get_pc_thunk.bx>
 8048679:	81 c3 87 19 00 00    	add    $0x1987,%ebx
 804867f:	83 ec 0c             	sub    $0xc,%esp
 8048682:	8b 6c 24 20          	mov    0x20(%esp),%ebp
 8048686:	8d b3 0c ff ff ff    	lea    -0xf4(%ebx),%esi
 804868c:	e8 bb fc ff ff       	call   804834c <_init>
 8048691:	8d 83 08 ff ff ff    	lea    -0xf8(%ebx),%eax
 8048697:	29 c6                	sub    %eax,%esi
 8048699:	c1 fe 02             	sar    $0x2,%esi
 804869c:	85 f6                	test   %esi,%esi
 804869e:	74 25                	je     80486c5 <__libc_csu_init+0x55>
 80486a0:	31 ff                	xor    %edi,%edi
 80486a2:	8d b6 00 00 00 00    	lea    0x0(%esi),%esi
 80486a8:	83 ec 04             	sub    $0x4,%esp
 80486ab:	ff 74 24 2c          	pushl  0x2c(%esp)
 80486af:	ff 74 24 2c          	pushl  0x2c(%esp)
 80486b3:	55                   	push   %ebp
 80486b4:	ff 94 bb 08 ff ff ff 	call   *-0xf8(%ebx,%edi,4)
 80486bb:	83 c7 01             	add    $0x1,%edi
 80486be:	83 c4 10             	add    $0x10,%esp
 80486c1:	39 f7                	cmp    %esi,%edi
 80486c3:	75 e3                	jne    80486a8 <__libc_csu_init+0x38>
 80486c5:	83 c4 0c             	add    $0xc,%esp
 80486c8:	5b                   	pop    %ebx
 80486c9:	5e                   	pop    %esi
 80486ca:	5f                   	pop    %edi
 80486cb:	5d                   	pop    %ebp
 80486cc:	c3                   	ret    
 80486cd:	8d 76 00             	lea    0x0(%esi),%esi

080486d0 <__libc_csu_fini>:
 80486d0:	f3 c3                	repz ret 
 80486d2:	66 90                	xchg   %ax,%ax
 80486d4:	66 90                	xchg   %ax,%ax
 80486d6:	66 90                	xchg   %ax,%ax
 80486d8:	66 90                	xchg   %ax,%ax
 80486da:	66 90                	xchg   %ax,%ax
 80486dc:	66 90                	xchg   %ax,%ax
 80486de:	66 90                	xchg   %ax,%ax

080486e0 <__fstat>:
 80486e0:	53                   	push   %ebx
 80486e1:	e8 4a fd ff ff       	call   8048430 <__x86.get_pc_thunk.bx>
 80486e6:	81 c3 1a 19 00 00    	add    $0x191a,%ebx
 80486ec:	83 ec 0c             	sub    $0xc,%esp
 80486ef:	ff 74 24 18          	pushl  0x18(%esp)
 80486f3:	ff 74 24 18          	pushl  0x18(%esp)
 80486f7:	6a 03                	push   $0x3
 80486f9:	e8 a2 fc ff ff       	call   80483a0 <__fxstat@plt>
 80486fe:	83 c4 18             	add    $0x18,%esp
 8048701:	5b                   	pop    %ebx
 8048702:	c3                   	ret    

Disassembly of section .fini:

08048704 <_fini>:
 8048704:	53                   	push   %ebx
 8048705:	83 ec 08             	sub    $0x8,%esp
 8048708:	e8 23 fd ff ff       	call   8048430 <__x86.get_pc_thunk.bx>
 804870d:	81 c3 f3 18 00 00    	add    $0x18f3,%ebx
 8048713:	83 c4 08             	add    $0x8,%esp
 8048716:	5b                   	pop    %ebx
 8048717:	c3                   	ret    
