gdb-peda$ x/4000i 0x55571000
   0x55571000:  jg     0x55571047
   0x55571002:  dec    esp
   0x55571003:  inc    esi
   0x55571004:  add    DWORD PTR [ecx],eax
   0x55571006:  add    DWORD PTR [eax],eax
   0x55571008:  add    BYTE PTR [eax],al
   0x5557100a:  add    BYTE PTR [eax],al
   0x5557100c:  add    BYTE PTR [eax],al
   0x5557100e:  add    BYTE PTR [eax],al
   0x55571010:  add    eax,DWORD PTR [eax]
   0x55571012:  add    eax,DWORD PTR [eax]
   0x55571014:  add    DWORD PTR [eax],eax
   0x55571016:  add    BYTE PTR [eax],al
   0x55571018:  nop
   0x55571019:  or     al,0x0
   0x5557101b:  add    BYTE PTR [eax+eax*1],dh
   0x5557101e:  add    BYTE PTR [eax],al
   0x55571020:  add    BYTE PTR [esi],cl
   0x55571022:  add    BYTE PTR [eax],al
   0x55571024:  add    BYTE PTR [eax],al
   0x55571026:  add    BYTE PTR [eax],al
   0x55571028:  xor    al,0x0
   0x5557102a:  and    BYTE PTR [eax],al
   0x5557102c:  add    al,0x0
   0x5557102e:  sub    BYTE PTR [eax],al
   0x55571030:  adc    DWORD PTR [eax],eax
   0x55571032:  adc    BYTE PTR [eax],al
   0x55571034:  add    DWORD PTR [eax],eax
   0x55571036:  add    BYTE PTR [eax],al
   0x55571038:  add    BYTE PTR [eax],al
   0x5557103a:  add    BYTE PTR [eax],al
   0x5557103c:  add    BYTE PTR [eax],al
   0x5557103e:  add    BYTE PTR [eax],al
   0x55571040:  add    BYTE PTR [eax],al
   0x55571042:  add    BYTE PTR [eax],al
   0x55571044:  sub    cl,BYTE PTR ds:0xd2a0000
   0x5557104a:  add    BYTE PTR [eax],al
   0x5557104c:  add    eax,0x0
   0x55571051:  adc    BYTE PTR [eax],al
   0x55571053:  add    BYTE PTR [edx],al
   0x55571055:  add    BYTE PTR [eax],al
   0x55571057:  add    BYTE PTR [edx+eax*1+0x2bc0000],bh
   0x5557105e:  add    BYTE PTR [eax],al
   0x55571060:  mov    esp,0x88000002
   0x55571065:  add    BYTE PTR [eax],al
   0x55571067:  add    BYTE PTR [eax+0x4000000],cl
   0x5557106d:  add    BYTE PTR [eax],al
   0x5557106f:  add    BYTE PTR [eax+eax*1],al
   0x55571072:  add    BYTE PTR [eax],al
   0x55571074:  add    al,0x0
   0x55571076:  add    BYTE PTR [eax],al
   0x55571078:  pop    eax
   0x55571079:  add    eax,0x5580000
   0x5557107e:  add    BYTE PTR [eax],al
   0x55571080:  pop    eax
   0x55571081:  add    eax,0x600000
   0x55571086:  add    BYTE PTR [eax],al
   0x55571088:  pusha
   0x55571089:  add    BYTE PTR [eax],al
   0x5557108b:  add    BYTE PTR [eax+eax*1],al
   0x5557108e:  add    BYTE PTR [eax],al
   0x55571090:  add    al,0x0
   0x55571092:  add    BYTE PTR [eax],al
   0x55571094:  push   eax
   0x55571095:  in     eax,0x74
   0x55571097:  fs mov eax,0xb8000005
   0x5557109d:  add    eax,0x5b80000
   0x555710a2:  add    BYTE PTR [eax],al
   0x555710a4:  and    al,0x0
   0x555710a6:  add    BYTE PTR [eax],al
   0x555710a8:  and    al,0x0
   0x555710aa:  add    BYTE PTR [eax],al
   0x555710ac:  add    al,0x0
   0x555710ae:  add    BYTE PTR [eax],al
   0x555710b0:  add    al,0x0
   0x555710b2:  add    BYTE PTR [eax],al
   0x555710b4:  add    eax,DWORD PTR [eax]
   0x555710b6:  add    BYTE PTR [eax],al
   0x555710b8:  or     DWORD PTR [eax],eax
   0x555710ba:  add    BYTE PTR [eax],al
   0x555710bc:  add    al,0x0
   0x555710be:  add    BYTE PTR [eax],al
   0x555710c0:  add    BYTE PTR [eax],al
   0x555710c2:  add    BYTE PTR [eax],al
   0x555710c4:  pop    es
   0x555710c5:  add    BYTE PTR [eax],al
   0x555710c7:  add    BYTE PTR [eax],al
   0x555710c9:  add    BYTE PTR [eax],al
   0x555710cb:  add    BYTE PTR [eax],al
   0x555710cd:  add    BYTE PTR [eax],al
   0x555710cf:  add    BYTE PTR [eax],cl
   0x555710d1:  add    BYTE PTR [eax],al
   0x555710d3:  add    BYTE PTR [edx],al
   0x555710d5:  add    BYTE PTR [eax],al
   0x555710d7:  add    BYTE PTR [ebx],al
   0x555710d9:  add    BYTE PTR [eax],al
   0x555710db:  add    BYTE PTR [ecx],al
   0x555710dd:  add    BYTE PTR [eax],al
   0x555710df:  add    BYTE PTR ds:0x6000000,al
   0x555710e5:  add    BYTE PTR [eax],al
   0x555710e7:  add    BYTE PTR [eax],al
   0x555710e9:  add    BYTE PTR [eax],al
   0x555710eb:  add    BYTE PTR [ebx],al
   0x555710ed:  add    BYTE PTR [eax],al
   0x555710ef:  add    BYTE PTR [ecx],al
   0x555710f1:  add    BYTE PTR [eax],al
   0x555710f3:  add    BYTE PTR [edx],al
   0x555710f5:  add    BYTE PTR [eax],al
   0x555710f7:  add    BYTE PTR [esi],al
   0x555710f9:  add    BYTE PTR [eax],al
   0x555710fb:  add    BYTE PTR [ecx],al
   0x555710fd:  aaa
   0x555710fe:  add    BYTE PTR [ecx],al
   0x55571100:  inc    eax
   0x55571101:  or     BYTE PTR [eax+eax*4],bl
   0x55571104:  add    DWORD PTR [eax],eax
   0x55571106:  add    BYTE PTR [eax],al
   0x55571108:  add    eax,0x8000000
   0x5557110d:  add    BYTE PTR [eax],al
   0x5557110f:  add    BYTE PTR [esp+eax*4-0x35ff588a],dh
   0x55571116:  sbb    esi,DWORD PTR [eax-0x6d7f331a]
   0x5557111c:  or     eax,0x88821e8e
   0x55571121:  sub    al,dh
   0x55571123:  es jmp 0x43a3:0x1991788f
   0x5557112b:  outs   dx,BYTE PTR ds:[esi]
   0x5557112c:  mov    ebp,DWORD PTR [edx]
   0x5557112e:  (bad)
   0x5557112f:  add    BYTE PTR es:[eax],al
   0x55571132:  add    BYTE PTR [eax],al
   0x55571134:  add    BYTE PTR [eax],al
   0x55571136:  add    BYTE PTR [eax],al
   0x55571138:  add    BYTE PTR [eax],al
   0x5557113a:  add    BYTE PTR [eax],al
   0x5557113c:  add    BYTE PTR [eax],al
   0x5557113e:  add    BYTE PTR [eax],al
   0x55571140:  push   ss
   0x55571141:  add    BYTE PTR [eax],al
   0x55571143:  add    BYTE PTR [eax+0xd00000c],dl
   0x55571149:  add    BYTE PTR [eax],al
   0x5557114b:  add    BYTE PTR [edx],dl
   0x5557114d:  add    BYTE PTR [eax+eax*1],cl
   0x55571150:  sub    BYTE PTR [eax],al
   0x55571152:  add    BYTE PTR [eax],al
   0x55571154:  loopne 0x55571160
   0x55571156:  add    BYTE PTR [eax],al
   0x55571158:  ins    BYTE PTR es:[edi],dx
   0x55571159:  add    DWORD PTR [eax],eax
   0x5557115b:  add    BYTE PTR [edx],dl
   0x5557115d:  add    BYTE PTR [eax+eax*1],cl
   0x55571160:  dec    eax
   0x55571161:  add    BYTE PTR [eax],al
   0x55571163:  add    BYTE PTR [eax+0x900000c],dh
   0x55571169:  add    BYTE PTR [eax],al
   0x5557116b:  add    BYTE PTR [edx],dl
   0x5557116d:  add    BYTE PTR [eax+eax*1],cl
   0x55571170:  cmp    al,0x0
   0x55571172:  add    BYTE PTR [eax],al
   0x55571174:  push   eax
   0x55571175:  or     al,0x0
   0x55571177:  add    BYTE PTR [eax],ch
   0x55571179:  add    BYTE PTR [eax],al
   0x5557117b:  add    BYTE PTR [edx],dl
   0x5557117d:  add    BYTE PTR [eax+eax*1],cl
   0x55571180:  mov    eax,DWORD PTR [eax]
   0x55571182:  add    BYTE PTR [eax],al
   0x55571184:  add    BYTE PTR [eax],al
   0x55571186:  add    BYTE PTR [eax],al
   0x55571188:  add    BYTE PTR [eax],al
   0x5557118a:  add    BYTE PTR [eax],al
   0x5557118c:  adc    DWORD PTR [eax],eax
   0x5557118e:  icebp
   0x5557118f:  call   FWORD PTR [ebx+0x0]
   0x55571192:  add    BYTE PTR [eax],al
   0x55571194:  ror    BYTE PTR [eax+eax*1],0x0
   0x55571198:  or     BYTE PTR [eax],al
   0x5557119a:  add    BYTE PTR [eax],al
   0x5557119c:  adc    al,BYTE PTR [eax]
   0x5557119e:  or     al,0x0
   0x555711a0:  add    DWORD PTR [eax],eax
   0x555711a2:  add    BYTE PTR [eax],al
   0x555711a4:  xor    BYTE PTR [eax],cl
   0x555711a6:  add    BYTE PTR [eax],al
   0x555711a8:  mov    al,0x2
   0x555711aa:  add    BYTE PTR [eax],al
   0x555711ac:  adc    al,BYTE PTR [eax]
   0x555711ae:  or     al,0x0
   0x555711b0:  add    DWORD PTR [eax],0x0
   0x555711b6:  add    BYTE PTR [eax],al
   0x555711b8:  add    BYTE PTR [eax],al
   0x555711ba:  add    BYTE PTR [eax],al
   0x555711bc:  adc    DWORD PTR [eax],eax
   0x555711be:  icebp
   0x555711bf:  inc    DWORD PTR [eax]
   0x555711c1:  pop    edi
   0x555711c2:  pop    edi
   0x555711c3:  jbe    0x55571229
   0x555711c5:  jae    0x55571236
   0x555711c7:  pop    edi
   0x555711c8:  arpl   WORD PTR [edi+ebp*2+0x63],bp
   0x555711cc:  imul   ebx,DWORD PTR [edi+0x67],0x65
   0x555711d0:  je     0x55571246
   0x555711d2:  imul   ebp,DWORD PTR [ebp+0x65],0x6b5f5f00
   0x555711d9:  gs jb  0x5557124a
   0x555711dc:  gs ins BYTE PTR es:[edi],dx
   0x555711de:  pop    edi
   0x555711df:  jbe    0x55571254
   0x555711e1:  jns    0x55571256
   0x555711e3:  arpl   WORD PTR [ecx+0x6c],sp
   0x555711e6:  ins    BYTE PTR es:[edi],dx
   0x555711e7:  add    BYTE PTR [edi+0x5f],bl
   0x555711ea:  jbe    0x55571250
   0x555711ec:  jae    0x5557125d
   0x555711ee:  pop    edi
   0x555711ef:  addr16 gs je 0x55571267
   0x555711f3:  imul   ebp,DWORD PTR [ebp+0x65],0x6164666f
   0x555711fa:  jns    0x555711fc
   0x555711fc:  pop    edi
   0x555711fd:  pop    edi
   0x555711fe:  jbe    0x55571264
   0x55571200:  jae    0x55571271
   0x55571202:  pop    edi
   0x55571203:  je     0x5557126e
   0x55571205:  ins    DWORD PTR es:[edi],dx
   0x55571206:  add    BYTE PTR gs:[edi+0x5f],bl
   0x5557120a:  imul   esp,DWORD PTR [ebp+0x72],0x6e
   0x5557120e:  gs ins BYTE PTR es:[edi],dx
   0x55571210:  pop    edi
   0x55571211:  jae    0x5557127c
   0x55571213:  addr16 jb 0x5557127b
   0x55571216:  je     0x5557128d
   0x55571218:  jb     0x55571288
   0x5557121a:  add    BYTE PTR [edi+0x5f],bl
   0x5557121d:  imul   esp,DWORD PTR [ebp+0x72],0x6e
   0x55571221:  gs ins BYTE PTR es:[edi],dx
   0x55571223:  pop    edi
   0x55571224:  jb     0x5557129a
   0x55571226:  pop    edi
   0x55571227:  jae    0x55571292
   0x55571229:  addr16 jb 0x55571291
   0x5557122c:  je     0x555712a3
   0x5557122e:  jb     0x5557129e
   0x55571230:  add    BYTE PTR [ecx+ebp*2+0x6e],ch
   0x55571234:  jne    0x555712ae
   0x55571236:  sub    eax,0x65746167
   0x5557123b:  cs jae 0x555712ad
   0x5557123e:  xor    DWORD PTR cs:[eax],eax
   0x55571241:  dec    esp
   0x55571242:  dec    ecx
   0x55571243:  dec    esi
   0x55571244:  push   ebp
   0x55571245:  pop    eax
   0x55571246:  pop    edi
   0x55571247:  xor    ch,BYTE PTR [esi]
   0x55571249:  add    BYTE PTR ss:[ecx+ecx*2+0x4e],cl
   0x5557124e:  push   ebp
   0x5557124f:  pop    eax
   0x55571250:  pop    edi
   0x55571251:  xor    ch,BYTE PTR [esi]
   0x55571253:  xor    eax,0x0
   0x55571258:  add    eax,DWORD PTR [eax]
   0x5557125a:  add    al,BYTE PTR [eax]
   0x5557125c:  add    eax,DWORD PTR [eax]
   0x5557125e:  add    al,BYTE PTR [eax]
   0x55571260:  add    eax,DWORD PTR [eax]
   0x55571262:  add    eax,DWORD PTR [eax]
   0x55571264:  add    al,BYTE PTR [eax]
   0x55571266:  add    al,BYTE PTR [eax]
   0x55571268:  add    DWORD PTR [eax],eax
   0x5557126a:  add    DWORD PTR [eax],eax
   0x5557126c:  add    DWORD PTR [eax],eax
   0x5557126e:  add    DWORD PTR [eax],eax
   0x55571270:  xchg   ecx,eax
   0x55571271:  lock into
   0x55571273:  unpcklps xmm0,XMMWORD PTR [eax]
   0x55571276:  add    BYTE PTR [eax],al
   0x55571278:  sbb    al,0x0
   0x5557127a:  add    BYTE PTR [eax],al
   0x5557127c:  jno    0x5557127e
   0x5557127e:  add    BYTE PTR [eax],al
   0x55571280:  add    BYTE PTR [eax],al
   0x55571282:  add    BYTE PTR [eax],al
   0x55571284:  add    DWORD PTR [eax],eax
   0x55571286:  add    BYTE PTR [eax],al
   0x55571288:  add    al,BYTE PTR [eax]
   0x5557128a:  add    DWORD PTR [eax],eax
   0x5557128c:  div    BYTE PTR [ebp-0x52]
   0x5557128f:  add    edx,DWORD PTR [eax+eax*1]
   0x55571292:  add    BYTE PTR [eax],al
   0x55571294:  sbb    al,0x0
   0x55571296:  add    BYTE PTR [eax],al
   0x55571298:  add    DWORD PTR [eax],0x0
   0x5557129e:  add    BYTE PTR [eax],al
   0x555712a0:  add    DWORD PTR [eax],eax
   0x555712a2:  add    BYTE PTR [eax],al
   0x555712a4:  add    eax,DWORD PTR [eax]
   0x555712a6:  add    DWORD PTR [eax],eax
   0x555712a8:  cmc
   0x555712a9:  jne    0x55571259
   0x555712ab:  add    edx,DWORD PTR [eax+eax*1]
   0x555712ae:  add    BYTE PTR [eax],al
   0x555712b0:  add    BYTE PTR [eax],al
   0x555712b2:  add    BYTE PTR [eax],al
   0x555712b4:  mov    eax,DWORD PTR [eax]
   0x555712b6:  add    BYTE PTR [eax],al
   0x555712b8:  add    BYTE PTR [eax],al
   0x555712ba:  add    BYTE PTR [eax],al
   0x555712bc:  push   cs
   0x555712bd:  add    BYTE PTR [eax],al
   0x555712bf:  add    BYTE PTR [ecx+0x0],dh
   0x555712c2:  add    BYTE PTR [eax],al
   0x555712c4:  adc    BYTE PTR [eax],al
   0x555712c6:  add    BYTE PTR [eax],al
   0x555712c8:  add    BYTE PTR [eax],al
   0x555712ca:  add    BYTE PTR [eax],al
   0x555712cc:  add    al,0x0
   0x555712ce:  add    BYTE PTR [eax],al
   0x555712d0:  mov    ah,0x0
   0x555712d2:  add    BYTE PTR [eax],al
   0x555712d4:  cmc
   0x555712d5:  (bad)
   0x555712d6:  jmp    FWORD PTR [edi-0x14]
   0x555712d9:  add    BYTE PTR [eax],al
   0x555712db:  add    BYTE PTR ds:0xc0000000,al
   0x555712e1:  add    DWORD PTR [eax],eax
   0x555712e3:  add    BYTE PTR [esi],al
   0x555712e5:  add    BYTE PTR [eax],al
   0x555712e7:  add    BYTE PTR [eax],dh
   0x555712e9:  add    DWORD PTR [eax],eax
   0x555712eb:  add    BYTE PTR [edx],cl
   0x555712ed:  add    BYTE PTR [eax],al
   0x555712ef:  add    BYTE PTR [ebp+0xb000000],dl
   0x555712f5:  add    BYTE PTR [eax],al
   0x555712f7:  add    BYTE PTR [eax],dl
   0x555712f9:  add    BYTE PTR [eax],al
   0x555712fb:  add    ah,bh
   0x555712fd:  (bad)
   0x555712fe:  jmp    FWORD PTR [edi+0x68]
   0x55571301:  add    al,BYTE PTR [eax]
   0x55571303:  add    ch,bh
   0x55571305:  (bad)
   0x55571306:  jmp    FWORD PTR [edi+0x3]
   0x55571309:  add    BYTE PTR [eax],al
   0x5557130b:  add    al,dh
   0x5557130d:  (bad)
   0x5557130e:  jmp    FWORD PTR [edi+0x56]
   0x55571311:  add    al,BYTE PTR [eax]
   0x55571313:  add    BYTE PTR [eax],al
   0x55571315:  add    BYTE PTR [eax],al
   0x55571317:  add    BYTE PTR [eax],al
   0x55571319:  add    BYTE PTR [eax],al
   0x5557131b:  add    BYTE PTR [eax],al
   0x5557131d:  add    BYTE PTR [eax],al
   0x5557131f:  add    BYTE PTR [eax],al
   0x55571321:  add    BYTE PTR [eax],al
   0x55571323:  add    BYTE PTR [eax],al
   0x55571325:  add    BYTE PTR [eax],al
   0x55571327:  add    BYTE PTR [eax],al
   0x55571329:  add    BYTE PTR [eax],al
   0x5557132b:  add    BYTE PTR [eax],al
   0x5557132d:  add    BYTE PTR [eax],al
   0x5557132f:  add    BYTE PTR [eax],al
   0x55571331:  add    BYTE PTR [eax],al
   0x55571333:  add    BYTE PTR [eax],al
   0x55571335:  add    BYTE PTR [eax],al
   0x55571337:  add    BYTE PTR [eax],al
   0x55571339:  add    BYTE PTR [eax],al
   0x5557133b:  add    BYTE PTR [eax],al
   0x5557133d:  add    BYTE PTR [eax],al
   0x5557133f:  add    BYTE PTR [eax],al
   0x55571341:  add    BYTE PTR [eax],al
   0x55571343:  add    BYTE PTR [edx+eax*1+0x0],bh
   0x5557134a:  add    BYTE PTR [eax],al
   0x5557134c:  add    BYTE PTR [eax],al
   0x5557134e:  add    BYTE PTR [eax],al
   0x55571350:  add    BYTE PTR [eax],al
   0x55571352:  add    BYTE PTR [eax],al
   0x55571354:  add    BYTE PTR [eax],al
   0x55571356:  add    BYTE PTR [eax],al
   0x55571358:  add    BYTE PTR [eax],al
   0x5557135a:  add    BYTE PTR [eax],al
   0x5557135c:  add    BYTE PTR [eax],al
   0x5557135e:  add    BYTE PTR [eax],al
   0x55571360:  add    BYTE PTR [eax],al
   0x55571362:  add    BYTE PTR [eax],al
   0x55571364:  add    BYTE PTR [eax],al
   0x55571366:  add    BYTE PTR [eax],al
   0x55571368:  add    BYTE PTR [eax],al
   0x5557136a:  add    BYTE PTR [eax],al
   0x5557136c:  add    BYTE PTR [eax],al
   0x5557136e:  add    BYTE PTR [eax],al
   0x55571370:  add    BYTE PTR [eax],al
   0x55571372:  add    BYTE PTR [eax],al
   0x55571374:  add    BYTE PTR [eax],al
   0x55571376:  add    BYTE PTR [eax],al
   0x55571378:  add    BYTE PTR [eax],al
   0x5557137a:  add    BYTE PTR [eax],al
   0x5557137c:  add    BYTE PTR [eax],al
   0x5557137e:  add    BYTE PTR [eax],al
   0x55571380:  add    BYTE PTR [eax],al
   0x55571382:  add    BYTE PTR [eax],al
   0x55571384:  add    BYTE PTR [eax],al
   0x55571386:  add    BYTE PTR [eax],al
   0x55571388:  add    BYTE PTR [eax],al
   0x5557138a:  add    BYTE PTR [eax],al
   0x5557138c:  add    BYTE PTR [eax],al
   0x5557138e:  add    BYTE PTR [eax],al
   0x55571390:  add    BYTE PTR [eax],al
   0x55571392:  add    BYTE PTR [eax],al
   0x55571394:  add    BYTE PTR [eax],al
   0x55571396:  add    BYTE PTR [eax],al
   0x55571398:  add    BYTE PTR [eax],al
   0x5557139a:  add    BYTE PTR [eax],al
   0x5557139c:  add    BYTE PTR [eax],al
   0x5557139e:  add    BYTE PTR [eax],al
   0x555713a0:  add    BYTE PTR [eax],al
   0x555713a2:  add    BYTE PTR [eax],al
   0x555713a4:  add    BYTE PTR [eax],al
   0x555713a6:  add    BYTE PTR [eax],al
   0x555713a8:  add    BYTE PTR [eax],al
   0x555713aa:  add    BYTE PTR [eax],al
   0x555713ac:  add    BYTE PTR [eax],al
   0x555713ae:  add    BYTE PTR [eax],al
   0x555713b0:  add    BYTE PTR [eax],al
   0x555713b2:  add    BYTE PTR [eax],al
   0x555713b4:  add    BYTE PTR [eax],al
   0x555713b6:  add    BYTE PTR [eax],al
   0x555713b8:  add    BYTE PTR [eax],al
   0x555713ba:  add    BYTE PTR [eax],al
   0x555713bc:  add    BYTE PTR [eax],al
   0x555713be:  add    BYTE PTR [eax],al
   0x555713c0:  add    BYTE PTR [eax],al
   0x555713c2:  add    BYTE PTR [eax],al
   0x555713c4:  add    BYTE PTR [eax],al
   0x555713c6:  add    BYTE PTR [eax],al
   0x555713c8:  add    BYTE PTR [eax],al
   0x555713ca:  add    BYTE PTR [eax],al
   0x555713cc:  add    BYTE PTR [eax],al
   0x555713ce:  add    BYTE PTR [eax],al
   0x555713d0:  add    BYTE PTR [eax],al
   0x555713d2:  add    BYTE PTR [eax],al
   0x555713d4:  add    BYTE PTR [eax],al
   0x555713d6:  add    BYTE PTR [eax],al
   0x555713d8:  add    BYTE PTR [eax],al
   0x555713da:  add    BYTE PTR [eax],al
   0x555713dc:  add    BYTE PTR [eax],al
   0x555713de:  add    BYTE PTR [eax],al
   0x555713e0:  add    BYTE PTR [eax],al
   0x555713e2:  add    BYTE PTR [eax],al
   0x555713e4:  add    BYTE PTR [eax],al
   0x555713e6:  add    BYTE PTR [eax],al
   0x555713e8:  add    BYTE PTR [eax],al
   0x555713ea:  add    BYTE PTR [eax],al
   0x555713ec:  add    BYTE PTR [eax],al
   0x555713ee:  add    BYTE PTR [eax],al
   0x555713f0:  add    BYTE PTR [eax],al
   0x555713f2:  add    BYTE PTR [eax],al
   0x555713f4:  add    BYTE PTR [eax],al
   0x555713f6:  add    BYTE PTR [eax],al
   0x555713f8:  add    BYTE PTR [eax],al
   0x555713fa:  add    BYTE PTR [eax],al
   0x555713fc:  add    BYTE PTR [eax],al
   0x555713fe:  add    BYTE PTR [eax],al
   0x55571400:  add    BYTE PTR [eax],al
   0x55571402:  add    BYTE PTR [eax],al
   0x55571404:  add    BYTE PTR [eax],al
   0x55571406:  add    BYTE PTR [eax],al
   0x55571408:  add    BYTE PTR [eax],al
   0x5557140a:  add    BYTE PTR [eax],al
   0x5557140c:  add    BYTE PTR [eax],al
   0x5557140e:  add    BYTE PTR [eax],al
   0x55571410:  add    BYTE PTR [eax],al
   0x55571412:  add    BYTE PTR [eax],al
   0x55571414:  add    BYTE PTR [eax],al
   0x55571416:  add    BYTE PTR [eax],al
   0x55571418:  add    BYTE PTR [eax],al
   0x5557141a:  add    BYTE PTR [eax],al
   0x5557141c:  add    BYTE PTR [eax],al
   0x5557141e:  add    BYTE PTR [eax],al
   0x55571420:  add    BYTE PTR [eax],al
   0x55571422:  add    BYTE PTR [eax],al
   0x55571424:  add    BYTE PTR [eax],al
   0x55571426:  add    BYTE PTR [eax],al
   0x55571428:  add    BYTE PTR [eax],al
   0x5557142a:  add    BYTE PTR [eax],al
   0x5557142c:  add    BYTE PTR [eax],al
   0x5557142e:  add    BYTE PTR [eax],al
   0x55571430:  add    BYTE PTR [eax],al
   0x55571432:  add    BYTE PTR [eax],al
   0x55571434:  add    BYTE PTR [eax],al
   0x55571436:  add    BYTE PTR [eax],al
   0x55571438:  add    BYTE PTR [eax],al
   0x5557143a:  add    BYTE PTR [eax],al
   0x5557143c:  add    BYTE PTR [eax],al
   0x5557143e:  add    BYTE PTR [eax],al
   0x55571440:  add    BYTE PTR [eax],al
   0x55571442:  add    BYTE PTR [eax],al
   0x55571444:  add    BYTE PTR [eax],al
   0x55571446:  add    BYTE PTR [eax],al
   0x55571448:  add    BYTE PTR [eax],al
   0x5557144a:  add    BYTE PTR [eax],al
   0x5557144c:  add    BYTE PTR [eax],al
   0x5557144e:  add    BYTE PTR [eax],al
   0x55571450:  add    BYTE PTR [eax],al
   0x55571452:  add    BYTE PTR [eax],al
   0x55571454:  add    BYTE PTR [eax],al
   0x55571456:  add    BYTE PTR [eax],al
   0x55571458:  add    BYTE PTR [eax],al
   0x5557145a:  add    BYTE PTR [eax],al
   0x5557145c:  add    BYTE PTR [eax],al
   0x5557145e:  add    BYTE PTR [eax],al
   0x55571460:  add    BYTE PTR [eax],al
   0x55571462:  add    BYTE PTR [eax],al
   0x55571464:  add    BYTE PTR [eax],al
   0x55571466:  add    BYTE PTR [eax],al
   0x55571468:  add    BYTE PTR [eax],al
   0x5557146a:  add    BYTE PTR [eax],al
   0x5557146c:  add    BYTE PTR [eax],al
   0x5557146e:  add    BYTE PTR [eax],al
   0x55571470:  add    BYTE PTR [eax],al
   0x55571472:  add    BYTE PTR [eax],al
   0x55571474:  add    BYTE PTR [eax],al
   0x55571476:  add    BYTE PTR [eax],al
   0x55571478:  add    BYTE PTR [eax],al
   0x5557147a:  add    BYTE PTR [eax],al
   0x5557147c:  add    BYTE PTR [eax],al
   0x5557147e:  add    BYTE PTR [eax],al
   0x55571480:  add    BYTE PTR [eax],al
   0x55571482:  add    BYTE PTR [eax],al
   0x55571484:  add    BYTE PTR [eax],al
   0x55571486:  add    BYTE PTR [eax],al
   0x55571488:  add    BYTE PTR [eax],al
   0x5557148a:  add    BYTE PTR [eax],al
   0x5557148c:  add    BYTE PTR [eax],al
   0x5557148e:  add    BYTE PTR [eax],al
   0x55571490:  add    BYTE PTR [eax],al
   0x55571492:  add    BYTE PTR [eax],al
   0x55571494:  add    BYTE PTR [eax],al
   0x55571496:  add    BYTE PTR [eax],al
   0x55571498:  add    BYTE PTR [eax],al
   0x5557149a:  add    BYTE PTR [eax],al
   0x5557149c:  add    BYTE PTR [eax],al
   0x5557149e:  add    BYTE PTR [eax],al
   0x555714a0:  add    BYTE PTR [eax],al
   0x555714a2:  add    BYTE PTR [eax],al
   0x555714a4:  add    BYTE PTR [eax],al
   0x555714a6:  add    BYTE PTR [eax],al
   0x555714a8:  add    BYTE PTR [eax],al
   0x555714aa:  add    BYTE PTR [eax],al
   0x555714ac:  add    BYTE PTR [eax],al
   0x555714ae:  add    BYTE PTR [eax],al
   0x555714b0:  add    BYTE PTR [eax],al
   0x555714b2:  add    BYTE PTR [eax],al
   0x555714b4:  add    BYTE PTR [eax],al
   0x555714b6:  add    BYTE PTR [eax],al
   0x555714b8:  add    BYTE PTR [eax],al
   0x555714ba:  add    BYTE PTR [eax],al
   0x555714bc:  add    BYTE PTR [eax],al
   0x555714be:  add    BYTE PTR [eax],al
   0x555714c0:  add    BYTE PTR [eax],al
   0x555714c2:  add    BYTE PTR [eax],al
   0x555714c4:  add    BYTE PTR [eax],al
   0x555714c6:  add    BYTE PTR [eax],al
   0x555714c8:  add    BYTE PTR [eax],al
   0x555714ca:  add    BYTE PTR [eax],al
   0x555714cc:  add    BYTE PTR [eax],al
   0x555714ce:  add    BYTE PTR [eax],al
   0x555714d0:  add    BYTE PTR [eax],al
   0x555714d2:  add    BYTE PTR [eax],al
   0x555714d4:  add    BYTE PTR [eax],al
   0x555714d6:  add    BYTE PTR [eax],al
   0x555714d8:  add    BYTE PTR [eax],al
   0x555714da:  add    BYTE PTR [eax],al
   0x555714dc:  add    BYTE PTR [eax],al
   0x555714de:  add    BYTE PTR [eax],al
   0x555714e0:  add    BYTE PTR [eax],al
   0x555714e2:  add    BYTE PTR [eax],al
   0x555714e4:  add    BYTE PTR [eax],al
   0x555714e6:  add    BYTE PTR [eax],al
   0x555714e8:  add    BYTE PTR [eax],al
   0x555714ea:  add    BYTE PTR [eax],al
   0x555714ec:  add    BYTE PTR [eax],al
   0x555714ee:  add    BYTE PTR [eax],al
   0x555714f0:  add    BYTE PTR [eax],al
   0x555714f2:  add    BYTE PTR [eax],al
   0x555714f4:  add    BYTE PTR [eax],al
   0x555714f6:  add    BYTE PTR [eax],al
   0x555714f8:  add    BYTE PTR [eax],al
   0x555714fa:  add    BYTE PTR [eax],al
   0x555714fc:  add    BYTE PTR [eax],al
   0x555714fe:  add    BYTE PTR [eax],al
   0x55571500:  add    BYTE PTR [eax],al
   0x55571502:  add    BYTE PTR [eax],al
   0x55571504:  add    BYTE PTR [eax],al
   0x55571506:  add    BYTE PTR [eax],al
   0x55571508:  add    BYTE PTR [eax],al
   0x5557150a:  add    BYTE PTR [eax],al
   0x5557150c:  add    BYTE PTR [eax],al
   0x5557150e:  add    BYTE PTR [eax],al
   0x55571510:  add    BYTE PTR [eax],al
   0x55571512:  add    BYTE PTR [eax],al
   0x55571514:  add    BYTE PTR [eax],al
   0x55571516:  add    BYTE PTR [eax],al
   0x55571518:  add    BYTE PTR [eax],al
   0x5557151a:  add    BYTE PTR [eax],al
   0x5557151c:  add    BYTE PTR [eax],al
   0x5557151e:  add    BYTE PTR [eax],al
   0x55571520:  add    BYTE PTR [eax],al
   0x55571522:  add    BYTE PTR [eax],al
   0x55571524:  add    BYTE PTR [eax],al
   0x55571526:  add    BYTE PTR [eax],al
   0x55571528:  add    BYTE PTR [eax],al
   0x5557152a:  add    BYTE PTR [eax],al
   0x5557152c:  add    BYTE PTR [eax],al
   0x5557152e:  add    BYTE PTR [eax],al
   0x55571530:  add    BYTE PTR [eax],al
   0x55571532:  add    BYTE PTR [eax],al
   0x55571534:  add    BYTE PTR [eax],al
   0x55571536:  add    BYTE PTR [eax],al
   0x55571538:  add    BYTE PTR [eax],al
   0x5557153a:  add    BYTE PTR [eax],al
   0x5557153c:  add    BYTE PTR [eax],al
   0x5557153e:  add    BYTE PTR [eax],al
   0x55571540:  add    BYTE PTR [eax],al
   0x55571542:  add    BYTE PTR [eax],al
   0x55571544:  add    BYTE PTR [eax],al
   0x55571546:  add    BYTE PTR [eax],al
   0x55571548:  add    BYTE PTR [eax],al
   0x5557154a:  add    BYTE PTR [eax],al
   0x5557154c:  add    BYTE PTR [eax],al
   0x5557154e:  add    BYTE PTR [eax],al
   0x55571550:  add    BYTE PTR [eax],al
   0x55571552:  add    BYTE PTR [eax],al
   0x55571554:  add    BYTE PTR [eax],al
   0x55571556:  add    BYTE PTR [eax],al
   0x55571558:  add    al,0x0
   0x5557155a:  add    BYTE PTR [eax],al
   0x5557155c:  adc    al,0x0
   0x5557155e:  add    BYTE PTR [eax],al
   0x55571560:  add    eax,DWORD PTR [eax]
   0x55571562:  add    BYTE PTR [eax],al
   0x55571564:  inc    edi
   0x55571565:  dec    esi
   0x55571566:  push   ebp
   0x55571567:  add    BYTE PTR [edi],bl
   0x55571569:  mov    esi,0xc5bd5ff4
   0x5557156e:  sahf
   0x5557156f:  dec    esi
   0x55571570:  outs   dx,BYTE PTR ds:[esi]
   0x55571571:  sbb    edi,0x7f5d5484
   0x55571577:  pop    eax
   0x55571578:  jl     0x55571548
   0x5557157a:  jmp    0x55571c19 <__vdso_gettimeofday+313>
   0x5557157f:  add    BYTE PTR [eax+eax*1],al
   0x55571582:  add    BYTE PTR [eax],al
   0x55571584:  add    BYTE PTR [eax],al
   0x55571586:  add    BYTE PTR [eax],al
   0x55571588:  dec    esp
   0x55571589:  imul   ebp,DWORD PTR [esi+0x75],0x78
   0x55571590:  add    BYTE PTR [edx],cl
   0x55571592:  add    al,0x0
   0x55571594:  add    al,0x0
   0x55571596:  add    BYTE PTR [eax],al
   0x55571598:  adc    al,BYTE PTR [eax]
   0x5557159a:  add    BYTE PTR [eax],al
   0x5557159c:  add    al,BYTE PTR [eax]
   0x5557159e:  add    BYTE PTR [eax],al
   0x555715a0:  inc    edi
   0x555715a1:  dec    esi
   0x555715a2:  push   ebp
   0x555715a3:  add    BYTE PTR [ecx],al
   0x555715a5:  add    BYTE PTR [eax],al
   0x555715a7:  add    BYTE PTR [eax],al
   0x555715a9:  add    BYTE PTR [eax],al
   0x555715ab:  add    BYTE PTR [ecx],al
   0x555715ad:  outs   dx,BYTE PTR ds:[esi]
   0x555715ae:  outs   dx,DWORD PTR ds:[esi]
   0x555715af:  jae    0x55571616
   0x555715b1:  outs   dx,BYTE PTR ds:[si]
   0x555715b3:  add    BYTE PTR gs:[bx+si],al
   0x555715b7:  add    BYTE PTR [ecx],al
   0x555715b9:  sbb    eax,DWORD PTR [ebx]
   0x555715bb:  cmp    esp,DWORD PTR [eax]
   0x555715bd:  add    BYTE PTR [eax],al
   0x555715bf:  add    BYTE PTR [ebx],al
   0x555715c1:  add    BYTE PTR [eax],al
   0x555715c3:  add    al,bl
   0x555715c5:  push   es
   0x555715c6:  add    BYTE PTR [eax],al
   0x555715c8:  cmp    al,0x0
   0x555715ca:  add    BYTE PTR [eax],al
   0x555715cc:  test   DWORD PTR [esi],0x7c0000
   0x555715d2:  add    BYTE PTR [eax],al
   0x555715d4:  pop    es
   0x555715d5:  pop    es
   0x555715d6:  add    BYTE PTR [eax],al
   0x555715d8:  call   0x695715dd
   0x555715dd:  add    BYTE PTR [eax],al
   0x555715df:  add    BYTE PTR [eax],al
   0x555715e1:  add    BYTE PTR [eax],al
   0x555715e3:  add    BYTE PTR [ecx],al
   0x555715e5:  jp     0x55571639
   0x555715e7:  add    BYTE PTR [ecx],al
   0x555715e9:  jl     0x555715f3
   0x555715eb:  add    DWORD PTR [ebx],ebx
   0x555715ed:  or     al,0x4
   0x555715ef:  add    al,0x88
   0x555715f1:  add    DWORD PTR [eax],eax
   0x555715f3:  add    BYTE PTR [eax],ch
   0x555715f5:  add    BYTE PTR [eax],al
   0x555715f7:  add    BYTE PTR [eax+eax*1],bl
   0x555715fa:  add    BYTE PTR [eax],al
   0x555715fc:  xchg   esp,eax
   0x555715fd:  push   es
   0x555715fe:  add    BYTE PTR [eax],al
   0x55571600:  or     eax,0x0
   0x55571605:  inc    ecx
   0x55571606:  push   cs
   0x55571607:  or     BYTE PTR [ecx+0xc0e4102],al
   0x5557160d:  (bad)
   0x5557160e:  add    eax,DWORD PTR [ecx+0xe]
   0x55571611:  adc    BYTE PTR [ebp+0xec54704],al
   0x55571617:  or     al,0x41
   0x55571619:  ret    0x80e
   0x5557161c:  inc    ecx
   0x5557161d:  ror    DWORD PTR [esi],0x4
   0x55571620:  adc    BYTE PTR [eax],al
   0x55571622:  add    BYTE PTR [eax],al
   0x55571624:  add    BYTE PTR [eax],al
   0x55571626:  add    BYTE PTR [eax],al
   0x55571628:  add    DWORD PTR [edx+0x52],edi
   0x5557162b:  push   ebx
   0x5557162c:  add    BYTE PTR [ecx],al
   0x5557162e:  jl     0x55571638
   0x55571630:  add    DWORD PTR [ebx],ebx
   0x55571632:  add    BYTE PTR [eax],al
   0x55571634:  push   0x18000000
   0x55571639:  add    BYTE PTR [eax],al
   0x5557163b:  add    BYTE PTR [ebx+0x6],dh
   0x5557163e:  add    BYTE PTR [eax],al
   0x55571640:  or     DWORD PTR [eax],eax
   0x55571642:  add    BYTE PTR [eax],al
   0x55571644:  add    BYTE PTR [edi],cl
   0x55571646:  add    esi,DWORD PTR [eax+eiz*1+0x6]
   0x5557164a:  adc    BYTE PTR [eax],al
   0x5557164c:  add    dh,BYTE PTR [eax+esi*1+0x10]
   0x55571650:  add    DWORD PTR [edx],eax
   0x55571652:  je     0x55571680
   0x55571654:  adc    BYTE PTR [edx],al
   0x55571656:  add    dh,BYTE PTR [eax+ebp*1+0x10]
   0x5557165a:  add    eax,DWORD PTR [edx]
   0x5557165c:  je     0x55571682
   0x5557165e:  adc    BYTE PTR ds:0x101c7402,al
   0x55571664:  push   es
   0x55571665:  add    dh,BYTE PTR [eax+ebx*1+0x10]
   0x55571669:  pop    es
   0x5557166a:  add    dh,BYTE PTR [esp+edx*1+0x10]
   0x5557166e:  or     BYTE PTR [edx],al
   0x55571670:  je     0x555716ae
   0x55571672:  inc    edx
   0x55571673:  lsl    esi,WORD PTR [esp+ebx*1+0x6]
   0x55571678:  adc    BYTE PTR [eax],al
   0x5557167a:  add    dh,BYTE PTR [esp+ebp*1+0x10]
   0x5557167e:  add    DWORD PTR [edx],eax
   0x55571680:  je     0x555716aa
   0x55571682:  adc    BYTE PTR [edx],al
   0x55571684:  add    dh,BYTE PTR [esp+0x10]
   0x55571688:  add    eax,DWORD PTR [edx]
   0x5557168a:  je     0x555716ac
   0x5557168c:  adc    BYTE PTR ds:0x10187402,al
   0x55571692:  push   es
   0x55571693:  add    dh,BYTE PTR [esp+edx*1+0x10]
   0x55571697:  pop    es
   0x55571698:  add    dh,BYTE PTR [eax+edx*1+0x10]
   0x5557169c:  or     BYTE PTR [edx],al
   0x5557169e:  je     0x555716d8
   0x555716a0:  inc    esp
   0x555716a1:  add    BYTE PTR [eax],al
   0x555716a3:  add    BYTE PTR [eax+eax*1+0x6170000],al
   0x555716aa:  add    BYTE PTR [eax],al
   0x555716ac:  or     BYTE PTR [eax],al
   0x555716ae:  add    BYTE PTR [eax],al
   0x555716b0:  add    BYTE PTR [edi],cl
   0x555716b2:  add    al,0x74
   0x555716b4:  mov    esp,0x100601
   0x555716b9:  add    esi,DWORD PTR [esp+ecx*8+0x1]
   0x555716bd:  adc    BYTE PTR [ecx],al
   0x555716bf:  add    esi,DWORD PTR [eax+ecx*8+0x1]
   0x555716c3:  adc    BYTE PTR [edx],al
   0x555716c5:  add    esi,DWORD PTR [esp+eax*8+0x1]
   0x555716c9:  adc    BYTE PTR [ebx],al
   0x555716cb:  add    esi,DWORD PTR [eax+eax*8+0x1]
   0x555716cf:  adc    BYTE PTR ds:0x1b87403,al
   0x555716d5:  adc    BYTE PTR [esi],al
   0x555716d7:  add    esi,DWORD PTR [esp+esi*4+0x1]
   0x555716db:  adc    BYTE PTR [edi],al
   0x555716dd:  add    esi,DWORD PTR [eax+esi*4+0x1]
   0x555716e1:  adc    BYTE PTR [eax],cl
   0x555716e3:  add    esi,DWORD PTR [eax+ebx*8+0x1]
   0x555716e7:  add    BYTE PTR [eax],al
   0x555716e9:  add    BYTE PTR [eax],al
   0x555716eb:  add    BYTE PTR [eax],al
   0x555716ed:  add    BYTE PTR [eax],al
   0x555716ef:  add    BYTE PTR [ebp-0x18],dl
   0x555716f2:  xchg   BYTE PTR ds:0xc1810000,al
   0x555716f8:  dec    esi
   0x555716f9:  cld
   0x555716fa:  (bad)
   0x555716fb:  dec    DWORD PTR [ecx+0xf5657e5]
   0x55571701:  scas   al,BYTE PTR es:[edi]
   0x55571702:  call   0x6e24816
   0x55571707:  inc    esp
   0x55571708:  (bad)
   0x5557170a:  dec    DWORD PTR [ebx-0x22b777]
   0x55571710:  (bad)
   0x55571711:  cmp    ecx,edx
   0x55571713:  jb     0x5557171b
   0x55571715:  jbe    0x5557171f
   0x55571717:  mov    eax,esi
   0x55571719:  mov    edx,ecx
   0x5557171b:  pop    esi
   0x5557171c:  pop    edi
   0x5557171d:  pop    ebp
   0x5557171e:  ret
   0x5557171f:  cmp    esi,eax
   0x55571721:  ja     0x55571717
   0x55571723:  pop    esi
   0x55571724:  pop    edi
   0x55571725:  pop    ebp
   0x55571726:  ret
   0x55571727:  mov    esi,esi
   0x55571729:  lea    edi,[edi+eiz*1+0x0]
   0x55571730:  push   ebp
   0x55571731:  mov    ebp,esp
   0x55571733:  push   edi
   0x55571734:  push   esi
   0x55571735:  call   0x55571c80
   0x5557173a:  add    edi,0xfffffc0a
   0x55571740:  push   ebx
   0x55571741:  lea    esi,ds:0xffffecbc
   0x55571747:  sub    esp,0x1c
   0x5557174a:  mov    DWORD PTR [ebp-0x24],eax
   0x5557174d:  mov    ecx,DWORD PTR [edi-0x1344]
   0x55571753:  lea    eax,ds:0xffffecd9
   0x55571759:  mov    DWORD PTR [ebp-0x14],eax
   0x5557175c:  and    ecx,0xfffffffe
   0x5557175f:  mov    DWORD PTR [ebp-0x18],ecx
   0x55571762:  mov    eax,DWORD PTR [ebp-0x14]
   0x55571765:  test   BYTE PTR [eax+edi*1],0x1
   0x55571769:  je     0x5557180f
   0x5557176f:  lfence
   0x55571772:  rdtsc
   0x55571774:  movsx  ecx,BYTE PTR [edi-0x1328]
   0x5557177b:  mov    ebx,DWORD PTR [esi+edi*1+0x18]
   0x5557177f:  sub    eax,DWORD PTR [esi+edi*1+0x8]
   0x55571783:  sbb    edx,DWORD PTR [esi+edi*1+0xc]
   0x55571787:  mov    DWORD PTR [ebp-0x20],ebx
   0x5557178a:  test   ecx,ecx
   0x5557178c:  js     0x555717fb
   0x5557178e:  shld   edx,eax,cl
   0x55571791:  xor    ebx,ebx
   0x55571793:  shl    eax,cl
   0x55571795:  and    ecx,0x20
   0x55571798:  cmovne edx,eax
   0x5557179b:  cmovne eax,ebx
   0x5557179e:  mov    ecx,DWORD PTR [ebp-0x20]
   0x555717a1:  mov    ebx,edx
   0x555717a3:  mul    ecx
   0x555717a5:  mov    eax,ebx
   0x555717a7:  mov    ebx,edx
   0x555717a9:  mul    ecx
   0x555717ab:  xor    ecx,ecx
   0x555717ad:  add    eax,ebx
   0x555717af:  adc    edx,ecx
   0x555717b1:  mov    ecx,DWORD PTR [esi+edi*1+0x10]
   0x555717b5:  mov    ebx,DWORD PTR [esi+edi*1+0x14]
   0x555717b9:  mov    DWORD PTR [ebp-0x20],ecx
   0x555717bc:  mov    DWORD PTR [ebp-0x1c],ebx
   0x555717bf:  mov    ecx,DWORD PTR [esi+edi*1]
   0x555717c2:  cmp    DWORD PTR [ebp-0x18],ecx
   0x555717c5:  jne    0x5557175c
   0x555717c7:  mov    ecx,DWORD PTR [ebp-0x20]
   0x555717ca:  mov    ebx,DWORD PTR [ebp-0x1c]
   0x555717cd:  add    ecx,eax
   0x555717cf:  mov    eax,DWORD PTR [edi-0x22bc]
   0x555717d5:  adc    ebx,edx
   0x555717d7:  mov    edx,DWORD PTR [edi-0x22b8]
   0x555717dd:  cmp    edx,ebx
   0x555717df:  ja     0x555717e7
   0x555717e1:  jb     0x555717ef
   0x555717e3:  cmp    eax,ecx
   0x555717e5:  jb     0x555717ef
   0x555717e7:  add    esp,0x1c
   0x555717ea:  pop    ebx
   0x555717eb:  pop    esi
   0x555717ec:  pop    edi
   0x555717ed:  pop    ebp
   0x555717ee:  ret
   0x555717ef:  add    esp,0x1c
   0x555717f2:  mov    edx,ebx
   0x555717f4:  mov    eax,ecx
   0x555717f6:  pop    ebx
   0x555717f7:  pop    esi
   0x555717f8:  pop    edi
   0x555717f9:  pop    ebp
   0x555717fa:  ret
   0x555717fb:  neg    ecx
   0x555717fd:  xor    ebx,ebx
   0x555717ff:  shrd   eax,edx,cl
   0x55571802:  shr    edx,cl
   0x55571804:  and    ecx,0x20
   0x55571807:  cmovne eax,edx
   0x5557180a:  cmovne edx,ebx
   0x5557180d:  jmp    0x5557179e
   0x5557180f:  mov    eax,DWORD PTR [ebp-0x24]
   0x55571812:  xor    edx,edx
   0x55571814:  mov    DWORD PTR [eax],0x0
   0x5557181a:  add    esp,0x1c
   0x5557181d:  xor    eax,eax
   0x5557181f:  pop    ebx
   0x55571820:  pop    esi
   0x55571821:  pop    edi
   0x55571822:  pop    ebp
   0x55571823:  ret
   0x55571824:  lea    esi,[esi+0x0]
   0x5557182a:  lea    edi,[edi+0x0]
   0x55571830 <__vdso_clock_gettime>:   push   ebp
   0x55571831 <__vdso_clock_gettime+1>: mov    ebp,esp
   0x55571833 <__vdso_clock_gettime+3>: push   edi
   0x55571834 <__vdso_clock_gettime+4>: push   esi
   0x55571835 <__vdso_clock_gettime+5>: push   ebx
   0x55571836 <__vdso_clock_gettime+6>: lea    ebx,ds:0xffffdd3c
   0x5557183c <__vdso_clock_gettime+12>:        call   0x55571c80
   0x55571841 <__vdso_clock_gettime+17>:        add    edi,0xfffffb03
   0x55571847 <__vdso_clock_gettime+23>:        sub    esp,0x1c
   0x5557184a <__vdso_clock_gettime+26>:        cmp    DWORD PTR [ebp+0x8],0x1
   0x5557184e <__vdso_clock_gettime+30>:        mov    esi,DWORD PTR [ebp+0xc]
   0x55571851 <__vdso_clock_gettime+33>:        je     0x55571976 <__vdso_clock_gettime+326>
   0x55571857 <__vdso_clock_gettime+39>:        jle    0x555718b3 <__vdso_clock_gettime+131>
   0x55571859 <__vdso_clock_gettime+41>:        cmp    DWORD PTR [ebp+0x8],0x5
   0x5557185d <__vdso_clock_gettime+45>:        je     0x55571895 <__vdso_clock_gettime+101>
   0x5557185f <__vdso_clock_gettime+47>:        cmp    DWORD PTR [ebp+0x8],0x6
   0x55571863 <__vdso_clock_gettime+51>:        jne    0x5557195b <__vdso_clock_gettime+299>
   0x55571869 <__vdso_clock_gettime+57>:        mov    eax,DWORD PTR [edi-0x22c4]
   0x5557186f <__vdso_clock_gettime+63>:        test   al,0x1
   0x55571871 <__vdso_clock_gettime+65>:        jne    0x55571ad9 <__vdso_clock_gettime+681>
   0x55571877 <__vdso_clock_gettime+71>:        mov    edx,DWORD PTR [ebx+edi*1+0x50]
   0x5557187b <__vdso_clock_gettime+75>:        mov    DWORD PTR [esi],edx
   0x5557187d <__vdso_clock_gettime+77>:        mov    edx,DWORD PTR [ebx+edi*1+0x58]
   0x55571881 <__vdso_clock_gettime+81>:        mov    DWORD PTR [esi+0x4],edx
   0x55571884 <__vdso_clock_gettime+84>:        cmp    eax,DWORD PTR [ebx+edi*1]
   0x55571887 <__vdso_clock_gettime+87>:        jne    0x55571869 <__vdso_clock_gettime+57>
   0x55571889 <__vdso_clock_gettime+89>:        add    esp,0x1c
   0x5557188c <__vdso_clock_gettime+92>:        xor    eax,eax
   0x5557188e <__vdso_clock_gettime+94>:        pop    ebx
   0x5557188f <__vdso_clock_gettime+95>:        pop    esi
   0x55571890 <__vdso_clock_gettime+96>:        pop    edi
   0x55571891 <__vdso_clock_gettime+97>:        pop    ebp
   0x55571892 <__vdso_clock_gettime+98>:        ret
   0x55571893 <__vdso_clock_gettime+99>:        pause
   0x55571895 <__vdso_clock_gettime+101>:       mov    eax,DWORD PTR [edi-0x22c4]
   0x5557189b <__vdso_clock_gettime+107>:       test   al,0x1
   0x5557189d <__vdso_clock_gettime+109>:       jne    0x55571893 <__vdso_clock_gettime+99>
   0x5557189f <__vdso_clock_gettime+111>:       mov    edx,DWORD PTR [ebx+edi*1+0x40]
   0x555718a3 <__vdso_clock_gettime+115>:       mov    DWORD PTR [esi],edx
   0x555718a5 <__vdso_clock_gettime+117>:       mov    edx,DWORD PTR [ebx+edi*1+0x48]
   0x555718a9 <__vdso_clock_gettime+121>:       mov    DWORD PTR [esi+0x4],edx
   0x555718ac <__vdso_clock_gettime+124>:       cmp    DWORD PTR [ebx+edi*1],eax
   0x555718af <__vdso_clock_gettime+127>:       je     0x55571889 <__vdso_clock_gettime+89>
   0x555718b1 <__vdso_clock_gettime+129>:       jmp    0x55571895 <__vdso_clock_gettime+101>
   0x555718b3 <__vdso_clock_gettime+131>:       lea    eax,[ebp-0x14]
   0x555718b6 <__vdso_clock_gettime+134>:       mov    DWORD PTR [ebp-0x20],eax
   0x555718b9 <__vdso_clock_gettime+137>:       mov    eax,DWORD PTR [ebp+0x8]
   0x555718bc <__vdso_clock_gettime+140>:       test   eax,eax
   0x555718be <__vdso_clock_gettime+142>:       jne    0x5557195b <__vdso_clock_gettime+299>
   0x555718c4 <__vdso_clock_gettime+148>:       mov    DWORD PTR [ebp+0xc],esi
   0x555718c7 <__vdso_clock_gettime+151>:       mov    eax,DWORD PTR [edi-0x22c4]
   0x555718cd <__vdso_clock_gettime+157>:       test   al,0x1
   0x555718cf <__vdso_clock_gettime+159>:       mov    DWORD PTR [ebp-0x1c],eax
   0x555718d2 <__vdso_clock_gettime+162>:       jne    0x55571a9a <__vdso_clock_gettime+618>
   0x555718d8 <__vdso_clock_gettime+168>:       mov    eax,DWORD PTR [ebx+edi*1+0x4]
   0x555718dc <__vdso_clock_gettime+172>:       mov    edx,DWORD PTR [ebp+0xc]
   0x555718df <__vdso_clock_gettime+175>:       mov    DWORD PTR [ebp-0x14],eax
   0x555718e2 <__vdso_clock_gettime+178>:       mov    eax,DWORD PTR [ebx+edi*1+0x28]
   0x555718e6 <__vdso_clock_gettime+182>:       mov    DWORD PTR [edx],eax
   0x555718e8 <__vdso_clock_gettime+184>:       mov    ecx,DWORD PTR [ebx+edi*1+0x4]
   0x555718ec <__vdso_clock_gettime+188>:       mov    eax,DWORD PTR [ebx+edi*1+0x20]
   0x555718f0 <__vdso_clock_gettime+192>:       mov    edx,DWORD PTR [ebx+edi*1+0x24]
   0x555718f4 <__vdso_clock_gettime+196>:       cmp    ecx,0x1
   0x555718f7 <__vdso_clock_gettime+199>:       mov    DWORD PTR [ebp-0x28],eax
   0x555718fa <__vdso_clock_gettime+202>:       mov    DWORD PTR [ebp-0x24],edx
   0x555718fd <__vdso_clock_gettime+205>:       je     0x55571a71 <__vdso_clock_gettime+577>
   0x55571903 <__vdso_clock_gettime+211>:       xor    eax,eax
   0x55571905 <__vdso_clock_gettime+213>:       xor    edx,edx
   0x55571907 <__vdso_clock_gettime+215>:       cmp    ecx,0x2
   0x5557190a <__vdso_clock_gettime+218>:       je     0x55571ac2 <__vdso_clock_gettime+658>
   0x55571910 <__vdso_clock_gettime+224>:       mov    ecx,DWORD PTR [ebx+edi*1+0x1c]
   0x55571914 <__vdso_clock_gettime+228>:       mov    esi,DWORD PTR [ebp-0x1c]
   0x55571917 <__vdso_clock_gettime+231>:       cmp    DWORD PTR [ebx+edi*1],esi
   0x5557191a <__vdso_clock_gettime+234>:       jne    0x555718c7 <__vdso_clock_gettime+151>
   0x5557191c <__vdso_clock_gettime+236>:       add    eax,DWORD PTR [ebp-0x28]
   0x5557191f <__vdso_clock_gettime+239>:       mov    esi,DWORD PTR [ebp+0xc]
   0x55571922 <__vdso_clock_gettime+242>:       adc    edx,DWORD PTR [ebp-0x24]
   0x55571925 <__vdso_clock_gettime+245>:       xor    ebx,ebx
   0x55571927 <__vdso_clock_gettime+247>:       shrd   eax,edx,cl
   0x5557192a <__vdso_clock_gettime+250>:       shr    edx,cl
   0x5557192c <__vdso_clock_gettime+252>:       test   cl,0x20
   0x5557192f <__vdso_clock_gettime+255>:       cmovne eax,edx
   0x55571932 <__vdso_clock_gettime+258>:       cmovne edx,ebx
   0x55571935 <__vdso_clock_gettime+261>:       cmp    edx,0x0
   0x55571938 <__vdso_clock_gettime+264>:       ja     0x55571a2a <__vdso_clock_gettime+506>
   0x5557193e <__vdso_clock_gettime+270>:       xor    ecx,ecx
   0x55571940 <__vdso_clock_gettime+272>:       cmp    eax,0x3b9ac9ff
   0x55571945 <__vdso_clock_gettime+277>:       ja     0x55571a2a <__vdso_clock_gettime+506>
   0x5557194b <__vdso_clock_gettime+283>:       add    DWORD PTR [esi],ecx
   0x5557194d <__vdso_clock_gettime+285>:       mov    DWORD PTR [esi+0x4],eax
   0x55571950 <__vdso_clock_gettime+288>:       mov    edi,DWORD PTR [ebp-0x14]
   0x55571953 <__vdso_clock_gettime+291>:       test   edi,edi
   0x55571955 <__vdso_clock_gettime+293>:       jne    0x55571889 <__vdso_clock_gettime+89>
   0x5557195b <__vdso_clock_gettime+299>:       mov    ecx,esi
   0x5557195d <__vdso_clock_gettime+301>:       mov    eax,0x109
   0x55571962 <__vdso_clock_gettime+306>:       mov    edx,ebx
   0x55571964 <__vdso_clock_gettime+308>:       mov    ebx,DWORD PTR [ebp+0x8]
   0x55571967 <__vdso_clock_gettime+311>:       call   0x55571c90 <__kernel_vsyscall>
   0x5557196c <__vdso_clock_gettime+316>:       mov    ebx,edx
   0x5557196e <__vdso_clock_gettime+318>:       add    esp,0x1c
   0x55571971 <__vdso_clock_gettime+321>:       pop    ebx
   0x55571972 <__vdso_clock_gettime+322>:       pop    esi
   0x55571973 <__vdso_clock_gettime+323>:       pop    edi
   0x55571974 <__vdso_clock_gettime+324>:       pop    ebp
   0x55571975 <__vdso_clock_gettime+325>:       ret
   0x55571976 <__vdso_clock_gettime+326>:       lea    eax,[ebp-0x14]
   0x55571979 <__vdso_clock_gettime+329>:       mov    DWORD PTR [ebp-0x20],eax
   0x5557197c <__vdso_clock_gettime+332>:       mov    eax,DWORD PTR [edi-0x22c4]
   0x55571982 <__vdso_clock_gettime+338>:       test   al,0x1
   0x55571984 <__vdso_clock_gettime+340>:       mov    DWORD PTR [ebp-0x1c],eax
   0x55571987 <__vdso_clock_gettime+343>:       jne    0x55571aae <__vdso_clock_gettime+638>
   0x5557198d <__vdso_clock_gettime+349>:       mov    eax,DWORD PTR [ebx+edi*1+0x4]
   0x55571991 <__vdso_clock_gettime+353>:       mov    edx,DWORD PTR [ebp+0xc]
   0x55571994 <__vdso_clock_gettime+356>:       mov    DWORD PTR [ebp-0x14],eax
   0x55571997 <__vdso_clock_gettime+359>:       mov    eax,DWORD PTR [ebx+edi*1+0x30]
   0x5557199b <__vdso_clock_gettime+363>:       mov    DWORD PTR [edx],eax
   0x5557199d <__vdso_clock_gettime+365>:       mov    ecx,DWORD PTR [ebx+edi*1+0x4]
   0x555719a1 <__vdso_clock_gettime+369>:       mov    eax,DWORD PTR [ebx+edi*1+0x38]
   0x555719a5 <__vdso_clock_gettime+373>:       mov    edx,DWORD PTR [ebx+edi*1+0x3c]
   0x555719a9 <__vdso_clock_gettime+377>:       cmp    ecx,0x1
   0x555719ac <__vdso_clock_gettime+380>:       mov    DWORD PTR [ebp-0x28],eax
   0x555719af <__vdso_clock_gettime+383>:       mov    DWORD PTR [ebp-0x24],edx
   0x555719b2 <__vdso_clock_gettime+386>:       je     0x55571a48 <__vdso_clock_gettime+536>
   0x555719b8 <__vdso_clock_gettime+392>:       xor    eax,eax
   0x555719ba <__vdso_clock_gettime+394>:       xor    edx,edx
   0x555719bc <__vdso_clock_gettime+396>:       cmp    ecx,0x2
   0x555719bf <__vdso_clock_gettime+399>:       je     0x55571acc <__vdso_clock_gettime+668>
   0x555719c5 <__vdso_clock_gettime+405>:       mov    ecx,DWORD PTR [ebx+edi*1+0x1c]
   0x555719c9 <__vdso_clock_gettime+409>:       mov    esi,DWORD PTR [ebp-0x1c]
   0x555719cc <__vdso_clock_gettime+412>:       cmp    DWORD PTR [ebx+edi*1],esi
   0x555719cf <__vdso_clock_gettime+415>:       jne    0x5557197c <__vdso_clock_gettime+332>
   0x555719d1 <__vdso_clock_gettime+417>:       add    eax,DWORD PTR [ebp-0x28]
   0x555719d4 <__vdso_clock_gettime+420>:       mov    esi,DWORD PTR [ebp+0xc]
   0x555719d7 <__vdso_clock_gettime+423>:       adc    edx,DWORD PTR [ebp-0x24]
   0x555719da <__vdso_clock_gettime+426>:       xor    ebx,ebx
   0x555719dc <__vdso_clock_gettime+428>:       shrd   eax,edx,cl
   0x555719df <__vdso_clock_gettime+431>:       shr    edx,cl
   0x555719e1 <__vdso_clock_gettime+433>:       test   cl,0x20
   0x555719e4 <__vdso_clock_gettime+436>:       cmovne eax,edx
   0x555719e7 <__vdso_clock_gettime+439>:       cmovne edx,ebx
   0x555719ea <__vdso_clock_gettime+442>:       cmp    edx,0x0
   0x555719ed <__vdso_clock_gettime+445>:       ja     0x555719fc <__vdso_clock_gettime+460>
   0x555719ef <__vdso_clock_gettime+447>:       xor    ecx,ecx
   0x555719f1 <__vdso_clock_gettime+449>:       cmp    eax,0x3b9ac9ff
   0x555719f6 <__vdso_clock_gettime+454>:       jbe    0x5557194b <__vdso_clock_gettime+283>
   0x555719fc <__vdso_clock_gettime+460>:       xor    ecx,ecx
   0x555719fe <__vdso_clock_gettime+462>:       add    eax,0xc4653600
   0x55571a03 <__vdso_clock_gettime+467>:       adc    edx,0xffffffff
   0x55571a06 <__vdso_clock_gettime+470>:       add    ecx,0x1
   0x55571a09 <__vdso_clock_gettime+473>:       cmp    edx,0x0
   0x55571a0c <__vdso_clock_gettime+476>:       ja     0x555719fe <__vdso_clock_gettime+462>
   0x55571a0e <__vdso_clock_gettime+478>:       cmp    eax,0x3b9ac9ff
   0x55571a13 <__vdso_clock_gettime+483>:       ja     0x555719fe <__vdso_clock_gettime+462>
   0x55571a15 <__vdso_clock_gettime+485>:       add    DWORD PTR [esi],ecx
   0x55571a17 <__vdso_clock_gettime+487>:       mov    DWORD PTR [esi+0x4],eax
   0x55571a1a <__vdso_clock_gettime+490>:       mov    edi,DWORD PTR [ebp-0x14]
   0x55571a1d <__vdso_clock_gettime+493>:       test   edi,edi
   0x55571a1f <__vdso_clock_gettime+495>:       je     0x5557195b <__vdso_clock_gettime+299>
   0x55571a25 <__vdso_clock_gettime+501>:       jmp    0x55571889 <__vdso_clock_gettime+89>
   0x55571a2a <__vdso_clock_gettime+506>:       xor    ecx,ecx
   0x55571a2c <__vdso_clock_gettime+508>:       add    eax,0xc4653600
   0x55571a31 <__vdso_clock_gettime+513>:       adc    edx,0xffffffff
   0x55571a34 <__vdso_clock_gettime+516>:       add    ecx,0x1
   0x55571a37 <__vdso_clock_gettime+519>:       cmp    edx,0x0
   0x55571a3a <__vdso_clock_gettime+522>:       ja     0x55571a2c <__vdso_clock_gettime+508>
   0x55571a3c <__vdso_clock_gettime+524>:       cmp    eax,0x3b9ac9ff
   0x55571a41 <__vdso_clock_gettime+529>:       ja     0x55571a2c <__vdso_clock_gettime+508>
   0x55571a43 <__vdso_clock_gettime+531>:       jmp    0x5557194b <__vdso_clock_gettime+283>
   0x55571a48 <__vdso_clock_gettime+536>:       call   0x555716f0
   0x55571a4d <__vdso_clock_gettime+541>:       sub    eax,DWORD PTR [ebx+edi*1+0x8]
   0x55571a51 <__vdso_clock_gettime+545>:       mov    esi,DWORD PTR [ebx+edi*1+0x10]
   0x55571a55 <__vdso_clock_gettime+549>:       sbb    edx,DWORD PTR [ebx+edi*1+0xc]
   0x55571a59 <__vdso_clock_gettime+553>:       mov    ecx,DWORD PTR [ebx+edi*1+0x14]
   0x55571a5d <__vdso_clock_gettime+557>:       and    esi,eax
   0x55571a5f <__vdso_clock_gettime+559>:       mov    eax,DWORD PTR [ebx+edi*1+0x18]
   0x55571a63 <__vdso_clock_gettime+563>:       and    ecx,edx
   0x55571a65 <__vdso_clock_gettime+565>:       imul   ecx,eax
   0x55571a68 <__vdso_clock_gettime+568>:       mul    esi
   0x55571a6a <__vdso_clock_gettime+570>:       add    edx,ecx
   0x55571a6c <__vdso_clock_gettime+572>:       jmp    0x555719c5 <__vdso_clock_gettime+405>
   0x55571a71 <__vdso_clock_gettime+577>:       call   0x555716f0
   0x55571a76 <__vdso_clock_gettime+582>:       sub    eax,DWORD PTR [ebx+edi*1+0x8]
   0x55571a7a <__vdso_clock_gettime+586>:       mov    esi,DWORD PTR [ebx+edi*1+0x10]
   0x55571a7e <__vdso_clock_gettime+590>:       sbb    edx,DWORD PTR [ebx+edi*1+0xc]
   0x55571a82 <__vdso_clock_gettime+594>:       mov    ecx,DWORD PTR [ebx+edi*1+0x14]
   0x55571a86 <__vdso_clock_gettime+598>:       and    esi,eax
   0x55571a88 <__vdso_clock_gettime+600>:       mov    eax,DWORD PTR [ebx+edi*1+0x18]
   0x55571a8c <__vdso_clock_gettime+604>:       and    ecx,edx
   0x55571a8e <__vdso_clock_gettime+606>:       imul   ecx,eax
   0x55571a91 <__vdso_clock_gettime+609>:       mul    esi
   0x55571a93 <__vdso_clock_gettime+611>:       add    edx,ecx
   0x55571a95 <__vdso_clock_gettime+613>:       jmp    0x55571910 <__vdso_clock_gettime+224>
   0x55571a9a <__vdso_clock_gettime+618>:       pause
   0x55571a9c <__vdso_clock_gettime+620>:       mov    eax,DWORD PTR [edi-0x22c4]
   0x55571aa2 <__vdso_clock_gettime+626>:       test   al,0x1
   0x55571aa4 <__vdso_clock_gettime+628>:       jne    0x55571a9a <__vdso_clock_gettime+618>
   0x55571aa6 <__vdso_clock_gettime+630>:       mov    DWORD PTR [ebp-0x1c],eax
   0x55571aa9 <__vdso_clock_gettime+633>:       jmp    0x555718d8 <__vdso_clock_gettime+168>
   0x55571aae <__vdso_clock_gettime+638>:       pause
   0x55571ab0 <__vdso_clock_gettime+640>:       mov    eax,DWORD PTR [edi-0x22c4]
   0x55571ab6 <__vdso_clock_gettime+646>:       test   al,0x1
   0x55571ab8 <__vdso_clock_gettime+648>:       jne    0x55571aae <__vdso_clock_gettime+638>
   0x55571aba <__vdso_clock_gettime+650>:       mov    DWORD PTR [ebp-0x1c],eax
   0x55571abd <__vdso_clock_gettime+653>:       jmp    0x5557198d <__vdso_clock_gettime+349>
   0x55571ac2 <__vdso_clock_gettime+658>:       mov    eax,DWORD PTR [ebp-0x20]
   0x55571ac5 <__vdso_clock_gettime+661>:       call   0x55571730
   0x55571aca <__vdso_clock_gettime+666>:       jmp    0x55571a76 <__vdso_clock_gettime+582>
   0x55571acc <__vdso_clock_gettime+668>:       mov    eax,DWORD PTR [ebp-0x20]
   0x55571acf <__vdso_clock_gettime+671>:       call   0x55571730
   0x55571ad4 <__vdso_clock_gettime+676>:       jmp    0x55571a4d <__vdso_clock_gettime+541>
   0x55571ad9 <__vdso_clock_gettime+681>:       pause
   0x55571adb <__vdso_clock_gettime+683>:       jmp    0x55571869 <__vdso_clock_gettime+57>
   0x55571ae0 <__vdso_gettimeofday>:    push   ebp
   0x55571ae1 <__vdso_gettimeofday+1>:  mov    ebp,esp
   0x55571ae3 <__vdso_gettimeofday+3>:  push   edi
   0x55571ae4 <__vdso_gettimeofday+4>:  push   esi
   0x55571ae5 <__vdso_gettimeofday+5>:  push   ebx
   0x55571ae6 <__vdso_gettimeofday+6>:  call   0x55571c80
   0x55571aeb <__vdso_gettimeofday+11>: add    edi,0xfffff859
   0x55571af1 <__vdso_gettimeofday+17>: sub    esp,0x1c
   0x55571af4 <__vdso_gettimeofday+20>: mov    esi,DWORD PTR [ebp+0x8]
   0x55571af7 <__vdso_gettimeofday+23>: test   esi,esi
   0x55571af9 <__vdso_gettimeofday+25>: je     0x55571bbb <__vdso_gettimeofday+219>
   0x55571aff <__vdso_gettimeofday+31>: lea    eax,[ebp-0x14]
   0x55571b02 <__vdso_gettimeofday+34>: lea    ebx,ds:0xffffdd3c
   0x55571b08 <__vdso_gettimeofday+40>: mov    DWORD PTR [ebp-0x20],eax
   0x55571b0b <__vdso_gettimeofday+43>: mov    eax,DWORD PTR [edi-0x22c4]
   0x55571b11 <__vdso_gettimeofday+49>: test   al,0x1
   0x55571b13 <__vdso_gettimeofday+51>: mov    DWORD PTR [ebp-0x1c],eax
   0x55571b16 <__vdso_gettimeofday+54>: jne    0x55571bd7 <__vdso_gettimeofday+247>
   0x55571b1c <__vdso_gettimeofday+60>: mov    eax,DWORD PTR [ebx+edi*1+0x4]
   0x55571b20 <__vdso_gettimeofday+64>: mov    edx,DWORD PTR [ebp+0x8]
   0x55571b23 <__vdso_gettimeofday+67>: mov    DWORD PTR [ebp-0x14],eax
   0x55571b26 <__vdso_gettimeofday+70>: mov    eax,DWORD PTR [ebx+edi*1+0x28]
   0x55571b2a <__vdso_gettimeofday+74>: mov    DWORD PTR [edx],eax
   0x55571b2c <__vdso_gettimeofday+76>: mov    ecx,DWORD PTR [ebx+edi*1+0x4]
   0x55571b30 <__vdso_gettimeofday+80>: mov    eax,DWORD PTR [ebx+edi*1+0x20]
   0x55571b34 <__vdso_gettimeofday+84>: mov    edx,DWORD PTR [ebx+edi*1+0x24]
   0x55571b38 <__vdso_gettimeofday+88>: cmp    ecx,0x1
   0x55571b3b <__vdso_gettimeofday+91>: mov    DWORD PTR [ebp-0x28],eax
   0x55571b3e <__vdso_gettimeofday+94>: mov    DWORD PTR [ebp-0x24],edx
   0x55571b41 <__vdso_gettimeofday+97>: je     0x55571beb <__vdso_gettimeofday+267>
   0x55571b47 <__vdso_gettimeofday+103>:        xor    eax,eax
   0x55571b49 <__vdso_gettimeofday+105>:        xor    edx,edx
   0x55571b4b <__vdso_gettimeofday+107>:        cmp    ecx,0x2
   0x55571b4e <__vdso_gettimeofday+110>:        je     0x55571c14 <__vdso_gettimeofday+308>
   0x55571b54 <__vdso_gettimeofday+116>:        mov    ecx,DWORD PTR [ebx+edi*1+0x1c]
   0x55571b58 <__vdso_gettimeofday+120>:        mov    esi,DWORD PTR [ebp-0x1c]
   0x55571b5b <__vdso_gettimeofday+123>:        cmp    esi,DWORD PTR [ebx+edi*1]
   0x55571b5e <__vdso_gettimeofday+126>:        jne    0x55571b0b <__vdso_gettimeofday+43>
   0x55571b60 <__vdso_gettimeofday+128>:        add    eax,DWORD PTR [ebp-0x28]
   0x55571b63 <__vdso_gettimeofday+131>:        mov    esi,DWORD PTR [ebp+0x8]
   0x55571b66 <__vdso_gettimeofday+134>:        adc    edx,DWORD PTR [ebp-0x24]
   0x55571b69 <__vdso_gettimeofday+137>:        xor    ebx,ebx
   0x55571b6b <__vdso_gettimeofday+139>:        shrd   eax,edx,cl
   0x55571b6e <__vdso_gettimeofday+142>:        shr    edx,cl
   0x55571b70 <__vdso_gettimeofday+144>:        test   cl,0x20
   0x55571b73 <__vdso_gettimeofday+147>:        cmovne eax,edx
   0x55571b76 <__vdso_gettimeofday+150>:        cmovne edx,ebx
   0x55571b79 <__vdso_gettimeofday+153>:        cmp    edx,0x0
   0x55571b7c <__vdso_gettimeofday+156>:        jbe    0x55571bcc <__vdso_gettimeofday+236>
   0x55571b7e <__vdso_gettimeofday+158>:        xor    ecx,ecx
   0x55571b80 <__vdso_gettimeofday+160>:        add    eax,0xc4653600
   0x55571b85 <__vdso_gettimeofday+165>:        adc    edx,0xffffffff
   0x55571b88 <__vdso_gettimeofday+168>:        add    ecx,0x1
   0x55571b8b <__vdso_gettimeofday+171>:        cmp    edx,0x0
   0x55571b8e <__vdso_gettimeofday+174>:        ja     0x55571b80 <__vdso_gettimeofday+160>
   0x55571b90 <__vdso_gettimeofday+176>:        cmp    eax,0x3b9ac9ff
   0x55571b95 <__vdso_gettimeofday+181>:        ja     0x55571b80 <__vdso_gettimeofday+160>
   0x55571b97 <__vdso_gettimeofday+183>:        mov    ebx,DWORD PTR [ebp-0x14]
   0x55571b9a <__vdso_gettimeofday+186>:        add    DWORD PTR [esi],ecx
   0x55571b9c <__vdso_gettimeofday+188>:        mov    ecx,eax
   0x55571b9e <__vdso_gettimeofday+190>:        mov    DWORD PTR [esi+0x4],eax
   0x55571ba1 <__vdso_gettimeofday+193>:        test   ebx,ebx
   0x55571ba3 <__vdso_gettimeofday+195>:        je     0x55571c34 <__vdso_gettimeofday+340>
   0x55571ba9 <__vdso_gettimeofday+201>:        mov    edx,0x10624dd3
   0x55571bae <__vdso_gettimeofday+206>:        sar    ecx,0x1f
   0x55571bb1 <__vdso_gettimeofday+209>:        imul   edx
   0x55571bb3 <__vdso_gettimeofday+211>:        sar    edx,0x6
   0x55571bb6 <__vdso_gettimeofday+214>:        sub    edx,ecx
   0x55571bb8 <__vdso_gettimeofday+216>:        mov    DWORD PTR [esi+0x4],edx
   0x55571bbb <__vdso_gettimeofday+219>:        mov    edx,DWORD PTR [ebp+0xc]
   0x55571bbe <__vdso_gettimeofday+222>:        xor    eax,eax
   0x55571bc0 <__vdso_gettimeofday+224>:        test   edx,edx
   0x55571bc2 <__vdso_gettimeofday+226>:        jne    0x55571c1e <__vdso_gettimeofday+318>
   0x55571bc4 <__vdso_gettimeofday+228>:        add    esp,0x1c
   0x55571bc7 <__vdso_gettimeofday+231>:        pop    ebx
   0x55571bc8 <__vdso_gettimeofday+232>:        pop    esi
   0x55571bc9 <__vdso_gettimeofday+233>:        pop    edi
   0x55571bca <__vdso_gettimeofday+234>:        pop    ebp
   0x55571bcb <__vdso_gettimeofday+235>:        ret
   0x55571bcc <__vdso_gettimeofday+236>:        xor    ecx,ecx
   0x55571bce <__vdso_gettimeofday+238>:        cmp    eax,0x3b9ac9ff
   0x55571bd3 <__vdso_gettimeofday+243>:        jbe    0x55571b97 <__vdso_gettimeofday+183>
   0x55571bd5 <__vdso_gettimeofday+245>:        jmp    0x55571b7e <__vdso_gettimeofday+158>
   0x55571bd7 <__vdso_gettimeofday+247>:        pause
   0x55571bd9 <__vdso_gettimeofday+249>:        mov    eax,DWORD PTR [edi-0x22c4]
   0x55571bdf <__vdso_gettimeofday+255>:        test   al,0x1
   0x55571be1 <__vdso_gettimeofday+257>:        jne    0x55571bd7 <__vdso_gettimeofday+247>
   0x55571be3 <__vdso_gettimeofday+259>:        mov    DWORD PTR [ebp-0x1c],eax
   0x55571be6 <__vdso_gettimeofday+262>:        jmp    0x55571b1c <__vdso_gettimeofday+60>
   0x55571beb <__vdso_gettimeofday+267>:        call   0x555716f0
   0x55571bf0 <__vdso_gettimeofday+272>:        sub    eax,DWORD PTR [ebx+edi*1+0x8]
   0x55571bf4 <__vdso_gettimeofday+276>:        mov    esi,DWORD PTR [ebx+edi*1+0x10]
   0x55571bf8 <__vdso_gettimeofday+280>:        sbb    edx,DWORD PTR [ebx+edi*1+0xc]
   0x55571bfc <__vdso_gettimeofday+284>:        mov    ecx,DWORD PTR [ebx+edi*1+0x14]
   0x55571c00 <__vdso_gettimeofday+288>:        and    esi,eax
   0x55571c02 <__vdso_gettimeofday+290>:        mov    eax,DWORD PTR [ebx+edi*1+0x18]
   0x55571c06 <__vdso_gettimeofday+294>:        and    ecx,edx
   0x55571c08 <__vdso_gettimeofday+296>:        imul   ecx,eax
   0x55571c0b <__vdso_gettimeofday+299>:        mul    esi
   0x55571c0d <__vdso_gettimeofday+301>:        add    edx,ecx
   0x55571c0f <__vdso_gettimeofday+303>:        jmp    0x55571b54 <__vdso_gettimeofday+116>
   0x55571c14 <__vdso_gettimeofday+308>:        mov    eax,DWORD PTR [ebp-0x20]
   0x55571c17 <__vdso_gettimeofday+311>:        call   0x55571730
   0x55571c1c <__vdso_gettimeofday+316>:        jmp    0x55571bf0 <__vdso_gettimeofday+272>
   0x55571c1e <__vdso_gettimeofday+318>:        mov    edx,DWORD PTR [edi-0x2264]
   0x55571c24 <__vdso_gettimeofday+324>:        mov    ebx,DWORD PTR [ebp+0xc]
   0x55571c27 <__vdso_gettimeofday+327>:        mov    DWORD PTR [ebx],edx
   0x55571c29 <__vdso_gettimeofday+329>:        mov    edx,DWORD PTR [edi-0x2260]
   0x55571c2f <__vdso_gettimeofday+335>:        mov    DWORD PTR [ebx+0x4],edx
   0x55571c32 <__vdso_gettimeofday+338>:        jmp    0x55571bc4 <__vdso_gettimeofday+228>
   0x55571c34 <__vdso_gettimeofday+340>:        mov    eax,0x4e
   0x55571c39 <__vdso_gettimeofday+345>:        mov    ecx,DWORD PTR [ebp+0xc]
   0x55571c3c <__vdso_gettimeofday+348>:        mov    edx,ebx
   0x55571c3e <__vdso_gettimeofday+350>:        mov    ebx,esi
   0x55571c40 <__vdso_gettimeofday+352>:        call   0x55571c90 <__kernel_vsyscall>
   0x55571c45 <__vdso_gettimeofday+357>:        mov    ebx,edx
   0x55571c47 <__vdso_gettimeofday+359>:        jmp    0x55571bc4 <__vdso_gettimeofday+228>
   0x55571c4c:  lea    esi,[esi+eiz*1+0x0]
   0x55571c50 <__vdso_time>:    push   ebp
   0x55571c51 <__vdso_time+1>:  call   0x55571c78
   0x55571c56 <__vdso_time+6>:  add    eax,0xfffff6ee
   0x55571c5b <__vdso_time+11>: mov    ebp,esp
   0x55571c5d <__vdso_time+13>: push   ebx
   0x55571c5e <__vdso_time+14>: mov    edx,DWORD PTR [ebp+0x8]
   0x55571c61 <__vdso_time+17>: mov    ecx,DWORD PTR [eax-0x229c]
   0x55571c67 <__vdso_time+23>: mov    ebx,DWORD PTR [eax-0x2298]
   0x55571c6d <__vdso_time+29>: test   edx,edx
   0x55571c6f <__vdso_time+31>: mov    eax,ecx
   0x55571c71 <__vdso_time+33>: je     0x55571c75 <__vdso_time+37>
   0x55571c73 <__vdso_time+35>: mov    DWORD PTR [edx],ecx
   0x55571c75 <__vdso_time+37>: pop    ebx
   0x55571c76 <__vdso_time+38>: pop    ebp
   0x55571c77 <__vdso_time+39>: ret
   0x55571c78:  mov    eax,DWORD PTR [esp]
   0x55571c7b:  ret
   0x55571c7c:  mov    ecx,DWORD PTR [esp]
   0x55571c7f:  ret
   0x55571c80:  mov    edi,DWORD PTR [esp]
   0x55571c83:  ret
   0x55571c84:  nop
   0x55571c85:  nop
   0x55571c86:  nop
   0x55571c87:  nop
   0x55571c88:  nop
   0x55571c89:  nop
   0x55571c8a:  nop
   0x55571c8b:  nop
   0x55571c8c:  nop
   0x55571c8d:  nop
   0x55571c8e:  nop
   0x55571c8f:  nop
   0x55571c90 <__kernel_vsyscall>:      push   ecx
   0x55571c91 <__kernel_vsyscall+1>:    push   edx
   0x55571c92 <__kernel_vsyscall+2>:    push   ebp
   0x55571c93 <__kernel_vsyscall+3>:    mov    ebp,esp
   0x55571c95 <__kernel_vsyscall+5>:    sysenter
   0x55571c97 <__kernel_vsyscall+7>:    int    0x80
   0x55571c99 <__kernel_vsyscall+9>:    pop    ebp
   0x55571c9a <__kernel_vsyscall+10>:   pop    edx
   0x55571c9b <__kernel_vsyscall+11>:   pop    ecx
   0x55571c9c <__kernel_vsyscall+12>:   ret
   0x55571c9d:  nop
   0x55571c9e:  nop
   0x55571c9f:  nop
   0x55571ca0:  nop
   0x55571ca1:  jmp    0x55571cb0 <__kernel_sigreturn>
   0x55571ca3:  nop
   0x55571ca4:  nop
   0x55571ca5:  nop
   0x55571ca6:  nop
   0x55571ca7:  nop
   0x55571ca8:  nop
   0x55571ca9:  nop
   0x55571caa:  nop
   0x55571cab:  nop
   0x55571cac:  nop
   0x55571cad:  nop
   0x55571cae:  nop
   0x55571caf:  nop
   0x55571cb0 <__kernel_sigreturn>:     pop    eax
   0x55571cb1 <__kernel_sigreturn+1>:   mov    eax,0x77
   0x55571cb6 <__kernel_sigreturn+6>:   int    0x80
   0x55571cb8 <__kernel_sigreturn+8>:   nop
   0x55571cb9:  lea    esi,[esi+eiz*1+0x0]
   0x55571cc0 <__kernel_rt_sigreturn>:  mov    eax,0xad
   0x55571cc5 <__kernel_rt_sigreturn+5>:        int    0x80
   0x55571cc7 <__kernel_rt_sigreturn+7>:        nop
   0x55571cc8:  cmp    dl,bh
   0x55571cca:  (bad)
   0x55571ccb:  dec    DWORD PTR [edx+0x0]
   0x55571cce:  add    BYTE PTR [eax],al
   0x55571cd0:  jno    0x55571cd2
   0x55571cd2:  add    eax,DWORD PTR [ebx]
   0x55571cd4:  add    ebp,DWORD PTR [ebx]
   0x55571cd6:  cli
   0x55571cd7:  (bad)
   0x55571cd8:  inc    DWORD PTR [eax+0x0]
   0x55571cdb:  add    BYTE PTR [eax],al
   0x55571cdd:  jb     0x55571cdf
   0x55571cdf:  add    eax,DWORD PTR [ebx]
   0x55571ce1:  add    ecx,DWORD PTR [ebp+0x36fffffa]
   0x55571ce7:  add    BYTE PTR [eax],al
   0x55571ce9:  add    BYTE PTR [ecx+0x0],dh
   0x55571cec:  add    eax,DWORD PTR [ebx]
   0x55571cee:  add    eax,DWORD PTR [eax+0x2cfffffa]
   0x55571cf4:  add    BYTE PTR [eax],al
   0x55571cf6:  add    BYTE PTR [edx+0x0],dh
   0x55571cf9:  add    eax,DWORD PTR [ebx]
   0x55571cfb:  add    edx,DWORD PTR [edi+0x22ffffff]
   0x55571d01:  add    BYTE PTR [eax],al
   0x55571d03:  add    BYTE PTR [edi+0x0],ch
   0x55571d06:  add    al,0x4
   0x55571d08:  add    al,0x8a
   0x55571d0a:  (bad)
   0x55571d0b:  (bad)
   0x55571d0c:  call   FWORD PTR [ecx]
   0x55571d0e:  add    BYTE PTR [eax],al
   0x55571d10:  add    BYTE PTR [esi+0x0],ch
   0x55571d13:  add    al,0x4
   0x55571d15:  add    al,0xf
   0x55571d17:  scas   al,BYTE PTR es:[edi]
   0x55571d18:  lock lfence
   0x55571d1c:  mfence
   0x55571d1f:  lfence
   0x55571d22:  mov    ebp,esp
   0x55571d24:  sysenter
   0x55571d26:  mov    ebp,ecx
   0x55571d28:  syscall
   0x55571d2a:  inc    edi
   0x55571d2b:  inc    ebx
   0x55571d2c:  inc    ebx
   0x55571d2d:  cmp    ah,BYTE PTR [eax]
   0x55571d2f:  sub    BYTE PTR [ebp+0x62],dl
   0x55571d32:  jne    0x55571da2
   0x55571d34:  je     0x55571dab
   0x55571d36:  and    BYTE PTR [esi],dh
   0x55571d38:  xor    ch,BYTE PTR cs:[esi]
   0x55571d3b:  xor    BYTE PTR ds:0x75627535,ch
   0x55571d41:  outs   dx,BYTE PTR ds:[esi]
   0x55571d42:  je     0x55571db9
   0x55571d44:  xor    DWORD PTR [edx],esi
   0x55571d46:  sub    DWORD PTR [eax],esp
   0x55571d48:  ss xor ch,BYTE PTR cs:[esi]
   0x55571d4c:  xor    BYTE PTR [eax],ah
   0x55571d4e:  xor    dh,BYTE PTR [eax]
   0x55571d50:  xor    DWORD PTR [esi],esi
   0x55571d52:  xor    DWORD PTR [eax],esi
   0x55571d54:  xor    BYTE PTR ds:0x732e0000,dh
   0x55571d5a:  push   0x74727473
   0x55571d5f:  popa
   0x55571d60:  bound  eax,QWORD PTR [eax]
   0x55571d62:  outs   dx,BYTE PTR cs:[si]
   0x55571d65:  jne    0x55571d95
   0x55571d67:  push   0x687361
   0x55571d6c:  cs fs jns 0x55571dde
   0x55571d70:  jae    0x55571deb
   0x55571d72:  ins    DWORD PTR es:[edi],dx
   0x55571d73:  add    BYTE PTR [esi],ch
   0x55571d75:  fs jns 0x55571de6
   0x55571d78:  jae    0x55571dee
   0x55571d7a:  jb     0x55571d7c
   0x55571d7c:  outs   dx,BYTE PTR cs:[si]
   0x55571d7f:  jne    0x55571daf
   0x55571d81:  jbe    0x55571de8
   0x55571d83:  jb     0x55571df8
   0x55571d85:  imul   ebp,DWORD PTR [edi+0x6e],0x6e672e00
   0x55571d8c:  jne    0x55571dbc
   0x55571d8e:  jbe    0x55571df5
   0x55571d90:  jb     0x55571e05
   0x55571d92:  imul   ebp,DWORD PTR [edi+0x6e],0x2e00645f
   0x55571d99:  fs jns 0x55571e0a
   0x55571d9c:  popa
   0x55571d9d:  ins    DWORD PTR es:[edi],dx
   0x55571d9e:  imul   esp,DWORD PTR [ebx+0x0],0x646f722e
   0x55571da5:  popa
   0x55571da6:  je     0x55571e09
   0x55571da8:  add    BYTE PTR [esi],ch
   0x55571daa:  outs   dx,BYTE PTR ds:[esi]
   0x55571dab:  outs   dx,DWORD PTR ds:[esi]
   0x55571dac:  je     0x55571e13
   0x55571dae:  add    BYTE PTR [esi],ch
   0x55571db0:  gs push 0x6172665f
   0x55571db6:  ins    DWORD PTR es:[edi],dx
   0x55571db7:  gs pop edi
   0x55571db9:  push   0x2e007264
   0x55571dbe:  gs push 0x6172665f
   0x55571dc4:  ins    DWORD PTR es:[edi],dx
   0x55571dc5:  add    BYTE PTR gs:[esi],ch
   0x55571dc8:  je     0x55571e2f
   0x55571dca:  js     0x55571e40
   0x55571dcc:  add    BYTE PTR [esi],ch
   0x55571dce:  popa
   0x55571dcf:  ins    BYTE PTR es:[edi],dx
   0x55571dd0:  je     0x55571e3b
   0x55571dd2:  outs   dx,BYTE PTR ds:[esi]
   0x55571dd3:  jae    0x55571e49
   0x55571dd5:  jb     0x55571e4c
   0x55571dd7:  arpl   WORD PTR [ecx+ebp*2+0x6f],si
   0x55571ddb:  outs   dx,BYTE PTR ds:[esi]
   0x55571ddc:  jae    0x55571dde
   0x55571dde:  cs popa
   0x55571de0:  ins    BYTE PTR es:[edi],dx
   0x55571de1:  je     0x55571e4c
   0x55571de3:  outs   dx,BYTE PTR ds:[esi]
   0x55571de4:  jae    0x55571e5a
   0x55571de6:  jb     0x55571e47
   0x55571de8:  jb     0x55571e4f
   0x55571dea:  jo     0x55571e58
   0x55571dec:  popa
   0x55571ded:  arpl   WORD PTR [ebp+0x6d],sp
   0x55571df0:  outs   dx,BYTE PTR gs:[esi]
   0x55571df2:  je     0x55571df4
   0x55571df4:  arpl   WORD PTR cs:[edi+0x6d],bp
   0x55571df8:  ins    DWORD PTR es:[edi],dx
   0x55571df9:  outs   dx,BYTE PTR gs:[esi]
   0x55571dfb:  je     0x55571dfd
   0x55571dfd:  add    BYTE PTR [eax],al
   0x55571dff:  add    BYTE PTR [eax],al
   0x55571e01:  add    BYTE PTR [eax],al
   0x55571e03:  add    BYTE PTR [eax],al
   0x55571e05:  add    BYTE PTR [eax],al
   0x55571e07:  add    BYTE PTR [eax],al
   0x55571e09:  add    BYTE PTR [eax],al
   0x55571e0b:  add    BYTE PTR [eax],al
   0x55571e0d:  add    BYTE PTR [eax],al
   0x55571e0f:  add    BYTE PTR [eax],al
   0x55571e11:  add    BYTE PTR [eax],al
   0x55571e13:  add    BYTE PTR [eax],al
   0x55571e15:  add    BYTE PTR [eax],al
   0x55571e17:  add    BYTE PTR [eax],al
   0x55571e19:  add    BYTE PTR [eax],al
   0x55571e1b:  add    BYTE PTR [eax],al
   0x55571e1d:  add    BYTE PTR [eax],al
   0x55571e1f:  add    BYTE PTR [eax],al
   0x55571e21:  add    BYTE PTR [eax],al
   0x55571e23:  add    BYTE PTR [eax],al
   0x55571e25:  add    BYTE PTR [eax],al
   0x55571e27:  add    BYTE PTR [edi],cl
   0x55571e29:  add    BYTE PTR [eax],al
   0x55571e2b:  add    BYTE PTR ds:0x2000000,al
   0x55571e31:  add    BYTE PTR [eax],al
   0x55571e33:  add    BYTE PTR [eax+eax*1+0xb40000],dh
   0x55571e3a:  add    BYTE PTR [eax],al
   0x55571e3c:  cmp    BYTE PTR [eax],al
   0x55571e3e:  add    BYTE PTR [eax],al
   0x55571e40:  add    eax,DWORD PTR [eax]
   0x55571e42:  add    BYTE PTR [eax],al
   0x55571e44:  add    BYTE PTR [eax],al
   0x55571e46:  add    BYTE PTR [eax],al
   0x55571e48:  add    al,0x0
   0x55571e4a:  add    BYTE PTR [eax],al
   0x55571e4c:  add    al,0x0
   0x55571e4e:  add    BYTE PTR [eax],al
   0x55571e50:  or     eax,DWORD PTR [eax]
   0x55571e52:  add    BYTE PTR [eax],al
   0x55571e54:  idiv   bh
   0x55571e56:  jmp    FWORD PTR [edi+0x2]
   0x55571e59:  add    BYTE PTR [eax],al
   0x55571e5b:  add    ah,ch
   0x55571e5d:  add    BYTE PTR [eax],al
   0x55571e5f:  add    ah,ch
   0x55571e61:  add    BYTE PTR [eax],al
   0x55571e63:  add    BYTE PTR [eax+eax*1+0x0],al
   0x55571e67:  add    BYTE PTR [ebx],al
   0x55571e69:  add    BYTE PTR [eax],al
   0x55571e6b:  add    BYTE PTR [eax],al
   0x55571e6d:  add    BYTE PTR [eax],al
   0x55571e6f:  add    BYTE PTR [eax+eax*1],al
   0x55571e72:  add    BYTE PTR [eax],al
   0x55571e74:  add    al,0x0
   0x55571e76:  add    BYTE PTR [eax],al
   0x55571e78:  adc    eax,0xb000000
   0x55571e7d:  add    BYTE PTR [eax],al
   0x55571e7f:  add    BYTE PTR [edx],al
   0x55571e81:  add    BYTE PTR [eax],al
   0x55571e83:  add    BYTE PTR [eax],dh
   0x55571e85:  add    DWORD PTR [eax],eax
   0x55571e87:  add    BYTE PTR [eax],dh
   0x55571e89:  add    DWORD PTR [eax],eax
   0x55571e8b:  add    BYTE PTR [eax+0x4000000],dl
   0x55571e91:  add    BYTE PTR [eax],al
   0x55571e93:  add    BYTE PTR [ecx],al
   0x55571e95:  add    BYTE PTR [eax],al
   0x55571e97:  add    BYTE PTR [eax+eax*1],al
   0x55571e9a:  add    BYTE PTR [eax],al
   0x55571e9c:  adc    BYTE PTR [eax],al
   0x55571e9e:  add    BYTE PTR [eax],al
   0x55571ea0:  sbb    eax,0x3000000
   0x55571ea5:  add    BYTE PTR [eax],al
   0x55571ea7:  add    BYTE PTR [edx],al
   0x55571ea9:  add    BYTE PTR [eax],al
   0x55571eab:  add    al,al
   0x55571ead:  add    DWORD PTR [eax],eax
   0x55571eaf:  add    al,al
   0x55571eb1:  add    DWORD PTR [eax],eax
   0x55571eb3:  add    BYTE PTR [ebp+0x0],dl
   0x55571eb9:  add    BYTE PTR [eax],al
   0x55571ebb:  add    BYTE PTR [eax],al
   0x55571ebd:  add    BYTE PTR [eax],al
   0x55571ebf:  add    BYTE PTR [ecx],al
   0x55571ec1:  add    BYTE PTR [eax],al
   0x55571ec3:  add    BYTE PTR [eax],al
   0x55571ec5:  add    BYTE PTR [eax],al
   0x55571ec7:  add    BYTE PTR ds:0xff000000,ah
   0x55571ecd:  (bad)
   0x55571ece:  jmp    FWORD PTR [edi+0x2]
   0x55571ed1:  add    BYTE PTR [eax],al
   0x55571ed3:  add    BYTE PTR [esi+0x2],dl
   0x55571ed6:  add    BYTE PTR [eax],al
   0x55571ed8:  push   esi
   0x55571ed9:  add    al,BYTE PTR [eax]
   0x55571edb:  add    BYTE PTR [edx],dl
   0x55571edd:  add    BYTE PTR [eax],al
   0x55571edf:  add    BYTE PTR [ebx],al
   0x55571ee1:  add    BYTE PTR [eax],al
   0x55571ee3:  add    BYTE PTR [eax],al
   0x55571ee5:  add    BYTE PTR [eax],al
   0x55571ee7:  add    BYTE PTR [edx],al
   0x55571ee9:  add    BYTE PTR [eax],al
   0x55571eeb:  add    BYTE PTR [edx],al
   0x55571eed:  add    BYTE PTR [eax],al
   0x55571eef:  add    BYTE PTR [edx],dh
   0x55571ef1:  add    BYTE PTR [eax],al
   0x55571ef3:  add    ch,bh
   0x55571ef5:  (bad)
   0x55571ef6:  jmp    FWORD PTR [edi+0x2]
   0x55571ef9:  add    BYTE PTR [eax],al
   0x55571efb:  add    BYTE PTR [eax+0x2],ch
   0x55571efe:  add    BYTE PTR [eax],al
   0x55571f00:  push   0x54000002
   0x55571f05:  add    BYTE PTR [eax],al
   0x55571f07:  add    BYTE PTR [eax+eax*1],al
   0x55571f0a:  add    BYTE PTR [eax],al
   0x55571f0c:  add    eax,DWORD PTR [eax]
   0x55571f0e:  add    BYTE PTR [eax],al
   0x55571f10:  add    al,0x0
   0x55571f12:  add    BYTE PTR [eax],al
   0x55571f14:  add    BYTE PTR [eax],al
   0x55571f16:  add    BYTE PTR [eax],al
   0x55571f18:  inc    ecx
   0x55571f19:  add    BYTE PTR [eax],al
   0x55571f1b:  add    BYTE PTR [esi],al
   0x55571f1d:  add    BYTE PTR [eax],al
   0x55571f1f:  add    BYTE PTR [ebx],al
   0x55571f21:  add    BYTE PTR [eax],al
   0x55571f23:  add    BYTE PTR [edx+eax*1+0x2bc0000],bh
   0x55571f2a:  add    BYTE PTR [eax],al
   0x55571f2c:  mov    BYTE PTR [eax],al
   0x55571f2e:  add    BYTE PTR [eax],al
   0x55571f30:  add    al,0x0
   0x55571f32:  add    BYTE PTR [eax],al
   0x55571f34:  add    BYTE PTR [eax],al
   0x55571f36:  add    BYTE PTR [eax],al
   0x55571f38:  add    al,0x0
   0x55571f3a:  add    BYTE PTR [eax],al
   0x55571f3c:  or     BYTE PTR [eax],al
   0x55571f3e:  add    BYTE PTR [eax],al
   0x55571f40:  dec    edx
   0x55571f41:  add    BYTE PTR [eax],al
   0x55571f43:  add    BYTE PTR [ecx],al
   0x55571f45:  add    BYTE PTR [eax],al
   0x55571f47:  add    BYTE PTR [ebx],al
   0x55571f49:  add    BYTE PTR [eax],al
   0x55571f4b:  add    BYTE PTR [ebx+eax*1+0x0],al
   0x55571f4f:  add    BYTE PTR [ebx+eax*1+0x0],al
   0x55571f53:  add    BYTE PTR [edx+eax*1],dl
   0x55571f56:  add    BYTE PTR [eax],al
   0x55571f58:  add    BYTE PTR [eax],al
   0x55571f5a:  add    BYTE PTR [eax],al
   0x55571f5c:  add    BYTE PTR [eax],al
   0x55571f5e:  add    BYTE PTR [eax],al
   0x55571f60:  add    al,0x0
   0x55571f62:  add    BYTE PTR [eax],al
   0x55571f64:  add    al,0x0
   0x55571f66:  add    BYTE PTR [eax],al
   0x55571f68:  push   edx
   0x55571f69:  add    BYTE PTR [eax],al
   0x55571f6b:  add    BYTE PTR [edi],al
   0x55571f6d:  add    BYTE PTR [eax],al
   0x55571f6f:  add    BYTE PTR [edx],al
   0x55571f71:  add    BYTE PTR [eax],al
   0x55571f73:  add    BYTE PTR [eax+0x5],bl
   0x55571f76:  add    BYTE PTR [eax],al
   0x55571f78:  pop    eax
   0x55571f79:  add    eax,0x600000
   0x55571f7e:  add    BYTE PTR [eax],al
   0x55571f80:  add    BYTE PTR [eax],al
   0x55571f82:  add    BYTE PTR [eax],al
   0x55571f84:  add    BYTE PTR [eax],al
   0x55571f86:  add    BYTE PTR [eax],al
   0x55571f88:  add    al,0x0
   0x55571f8a:  add    BYTE PTR [eax],al
   0x55571f8c:  add    BYTE PTR [eax],al
   0x55571f8e:  add    BYTE PTR [eax],al
   0x55571f90:  pop    eax
   0x55571f91:  add    BYTE PTR [eax],al
   0x55571f93:  add    BYTE PTR [ecx],al
   0x55571f95:  add    BYTE PTR [eax],al
   0x55571f97:  add    BYTE PTR [edx],al
   0x55571f99:  add    BYTE PTR [eax],al
   0x55571f9b:  add    BYTE PTR [eax-0x47fffffb],bh
   0x55571fa1:  add    eax,0x240000
   0x55571fa6:  add    BYTE PTR [eax],al
   0x55571fa8:  add    BYTE PTR [eax],al
   0x55571faa:  add    BYTE PTR [eax],al
   0x55571fac:  add    BYTE PTR [eax],al
   0x55571fae:  add    BYTE PTR [eax],al
   0x55571fb0:  add    al,0x0
   0x55571fb2:  add    BYTE PTR [eax],al
   0x55571fb4:  add    BYTE PTR [eax],al
   0x55571fb6:  add    BYTE PTR [eax],al
   0x55571fb8:  data16 add BYTE PTR [eax],al
   0x55571fbb:  add    BYTE PTR [ecx],al
   0x55571fbd:  add    BYTE PTR [eax],al
   0x55571fbf:  add    BYTE PTR [edx],al
   0x55571fc1:  add    BYTE PTR [eax],al
   0x55571fc3:  add    ah,bl
   0x55571fc5:  add    eax,0x5dc0000
   0x55571fca:  add    BYTE PTR [eax],al
   0x55571fcc:  or     al,0x1
   0x55571fce:  add    BYTE PTR [eax],al
   0x55571fd0:  add    BYTE PTR [eax],al
   0x55571fd2:  add    BYTE PTR [eax],al
   0x55571fd4:  add    BYTE PTR [eax],al
   0x55571fd6:  add    BYTE PTR [eax],al
   0x55571fd8:  add    al,0x0
   0x55571fda:  add    BYTE PTR [eax],al
   0x55571fdc:  add    BYTE PTR [eax],al
   0x55571fde:  add    BYTE PTR [eax],al
   0x55571fe0:  jo     0x55571fe2
   0x55571fe2:  add    BYTE PTR [eax],al
   0x55571fe4:  add    DWORD PTR [eax],eax
   0x55571fe6:  add    BYTE PTR [eax],al
   0x55571fe8:  push   es
   0x55571fe9:  add    BYTE PTR [eax],al
   0x55571feb:  add    al,dh
   0x55571fed:  push   es
   0x55571fee:  add    BYTE PTR [eax],al
   0x55571ff0:  lock push es
   0x55571ff2:  add    BYTE PTR [eax],al
   0x55571ff4:  fadd   DWORD PTR ds:0x0
   0x55571ffa:  add    BYTE PTR [eax],al
   0x55571ffc:  add    BYTE PTR [eax],al
   0x55571ffe:  add    BYTE PTR [eax],al
   0x55572000:  adc    BYTE PTR [eax],al
   0x55572002:  add    BYTE PTR [eax],al
   0x55572004:  add    BYTE PTR [eax],al
   0x55572006:  add    BYTE PTR [eax],al
   0x55572008:  jbe    0x5557200a
   0x5557200a:  add    BYTE PTR [eax],al
   0x5557200c:  add    DWORD PTR [eax],eax
   0x5557200e:  add    BYTE PTR [eax],al
   0x55572010:  add    al,BYTE PTR [eax]
   0x55572012:  add    BYTE PTR [eax],al
   0x55572014:  enter  0xc,0x0
   0x55572018:  enter  0xc,0x0
   0x5557201c:  dec    esi
   0x5557201d:  add    BYTE PTR [eax],al
   0x5557201f:  add    BYTE PTR [eax],al
   0x55572021:  add    BYTE PTR [eax],al
   0x55572023:  add    BYTE PTR [eax],al
   0x55572025:  add    BYTE PTR [eax],al
   0x55572027:  add    BYTE PTR [ecx],al
   0x55572029:  add    BYTE PTR [eax],al
   0x5557202b:  add    BYTE PTR [eax],al
   0x5557202d:  add    BYTE PTR [eax],al
   0x5557202f:  add    BYTE PTR [edi+0x1000000],al
   0x55572035:  add    BYTE PTR [eax],al
   0x55572037:  add    BYTE PTR [esi],al
   0x55572039:  add    BYTE PTR [eax],al
   0x5557203b:  add    BYTE PTR [esi],dl
   0x5557203d:  or     eax,0xd160000
   0x55572042:  add    BYTE PTR [eax],al
   0x55572044:  adc    al,0x0
   0x55572046:  add    BYTE PTR [eax],al
   0x55572048:  add    BYTE PTR [eax],al
   0x5557204a:  add    BYTE PTR [eax],al
   0x5557204c:  add    BYTE PTR [eax],al
   0x5557204e:  add    BYTE PTR [eax],al
   0x55572050:  add    DWORD PTR [eax],eax
   0x55572052:  add    BYTE PTR [eax],al
   0x55572054:  add    BYTE PTR [eax],al
   0x55572056:  add    BYTE PTR [eax],al
   0x55572058:  popf
   0x55572059:  add    BYTE PTR [eax],al
   0x5557205b:  add    BYTE PTR [ecx],al
   0x5557205d:  add    BYTE PTR [eax],al
   0x5557205f:  add    BYTE PTR [eax],dh
   0x55572061:  add    BYTE PTR [eax],al
   0x55572063:  add    BYTE PTR [eax],al
   0x55572065:  add    BYTE PTR [eax],al
   0x55572067:  add    BYTE PTR [edx],ch
   0x55572069:  or     eax,0x2d0000
   0x5557206e:  add    BYTE PTR [eax],al
   0x55572070:  add    BYTE PTR [eax],al
   0x55572072:  add    BYTE PTR [eax],al
   0x55572074:  add    BYTE PTR [eax],al
   0x55572076:  add    BYTE PTR [eax],al
   0x55572078:  add    DWORD PTR [eax],eax
   0x5557207a:  add    BYTE PTR [eax],al
   0x5557207c:  add    DWORD PTR [eax],eax
   0x5557207e:  add    BYTE PTR [eax],al
   0x55572080:  add    DWORD PTR [eax],eax
   0x55572082:  add    BYTE PTR [eax],al
   0x55572084:  add    eax,DWORD PTR [eax]
   0x55572086:  add    BYTE PTR [eax],al
   0x55572088:  add    BYTE PTR [eax],al
   0x5557208a:  add    BYTE PTR [eax],al
   0x5557208c:  add    BYTE PTR [eax],al
   0x5557208e:  add    BYTE PTR [eax],al
   0x55572090:  push   edi
   0x55572091:  or     eax,0xa60000
   0x55572096:  add    BYTE PTR [eax],al
   0x55572098:  add    BYTE PTR [eax],al
   0x5557209a:  add    BYTE PTR [eax],al
   0x5557209c:  add    BYTE PTR [eax],al
   0x5557209e:  add    BYTE PTR [eax],al
   0x555720a0:  add    DWORD PTR [eax],eax
   0x555720a2:  add    BYTE PTR [eax],al
   0x555720a4:  add    BYTE PTR [eax],al
   0x555720a6:  add    BYTE PTR [eax],al
   0x555720a8:  add    BYTE PTR [eax],al
   0x555720aa:  add    BYTE PTR [eax],al
   0x555720ac:  add    BYTE PTR [eax],al
   0x555720ae:  add    BYTE PTR [eax],al
   0x555720b0:  add    BYTE PTR [eax],al
   0x555720b2:  add    BYTE PTR [eax],al
   0x555720b4:  add    BYTE PTR [eax],al
   0x555720b6:  add    BYTE PTR [eax],al
   0x555720b8:  add    BYTE PTR [eax],al
   0x555720ba:  add    BYTE PTR [eax],al
   0x555720bc:  add    BYTE PTR [eax],al
   0x555720be:  add    BYTE PTR [eax],al
   0x555720c0:  add    BYTE PTR [eax],al
   0x555720c2:  add    BYTE PTR [eax],al
   0x555720c4:  add    BYTE PTR [eax],al
   0x555720c6:  add    BYTE PTR [eax],al
   0x555720c8:  add    BYTE PTR [eax],al
   0x555720ca:  add    BYTE PTR [eax],al
   0x555720cc:  add    BYTE PTR [eax],al
   0x555720ce:  add    BYTE PTR [eax],al
   0x555720d0:  add    BYTE PTR [eax],al
   0x555720d2:  add    BYTE PTR [eax],al
   0x555720d4:  add    BYTE PTR [eax],al
   0x555720d6:  add    BYTE PTR [eax],al
   0x555720d8:  add    BYTE PTR [eax],al
   0x555720da:  add    BYTE PTR [eax],al
   0x555720dc:  add    BYTE PTR [eax],al
   0x555720de:  add    BYTE PTR [eax],al
   0x555720e0:  add    BYTE PTR [eax],al
   0x555720e2:  add    BYTE PTR [eax],al
   0x555720e4:  add    BYTE PTR [eax],al
   0x555720e6:  add    BYTE PTR [eax],al
   0x555720e8:  add    BYTE PTR [eax],al
   0x555720ea:  add    BYTE PTR [eax],al
   0x555720ec:  add    BYTE PTR [eax],al
   0x555720ee:  add    BYTE PTR [eax],al
   0x555720f0:  add    BYTE PTR [eax],al
   0x555720f2:  add    BYTE PTR [eax],al
   0x555720f4:  add    BYTE PTR [eax],al
   0x555720f6:  add    BYTE PTR [eax],al
   0x555720f8:  add    BYTE PTR [eax],al
   0x555720fa:  add    BYTE PTR [eax],al
   0x555720fc:  add    BYTE PTR [eax],al
   0x555720fe:  add    BYTE PTR [eax],al
   0x55572100:  add    BYTE PTR [eax],al
   0x55572102:  add    BYTE PTR [eax],al
   0x55572104:  add    BYTE PTR [eax],al
   0x55572106:  add    BYTE PTR [eax],al
   0x55572108:  add    BYTE PTR [eax],al
   0x5557210a:  add    BYTE PTR [eax],al
   0x5557210c:  add    BYTE PTR [eax],al
   0x5557210e:  add    BYTE PTR [eax],al
   0x55572110:  add    BYTE PTR [eax],al
   0x55572112:  add    BYTE PTR [eax],al
   0x55572114:  add    BYTE PTR [eax],al
   0x55572116:  add    BYTE PTR [eax],al
   0x55572118:  add    BYTE PTR [eax],al
   0x5557211a:  add    BYTE PTR [eax],al
   0x5557211c:  add    BYTE PTR [eax],al
   0x5557211e:  add    BYTE PTR [eax],al
   0x55572120:  add    BYTE PTR [eax],al
   0x55572122:  add    BYTE PTR [eax],al
   0x55572124:  add    BYTE PTR [eax],al
   0x55572126:  add    BYTE PTR [eax],al
   0x55572128:  add    BYTE PTR [eax],al
   0x5557212a:  add    BYTE PTR [eax],al
   0x5557212c:  add    BYTE PTR [eax],al
   0x5557212e:  add    BYTE PTR [eax],al
   0x55572130:  add    BYTE PTR [eax],al
   0x55572132:  add    BYTE PTR [eax],al
   0x55572134:  add    BYTE PTR [eax],al
   0x55572136:  add    BYTE PTR [eax],al
   0x55572138:  add    BYTE PTR [eax],al
   0x5557213a:  add    BYTE PTR [eax],al
   0x5557213c:  add    BYTE PTR [eax],al
   0x5557213e:  add    BYTE PTR [eax],al
   0x55572140:  add    BYTE PTR [eax],al
   0x55572142:  add    BYTE PTR [eax],al
   0x55572144:  add    BYTE PTR [eax],al
   0x55572146:  add    BYTE PTR [eax],al
   0x55572148:  add    BYTE PTR [eax],al
   0x5557214a:  add    BYTE PTR [eax],al
   0x5557214c:  add    BYTE PTR [eax],al
   0x5557214e:  add    BYTE PTR [eax],al
   0x55572150:  add    BYTE PTR [eax],al
   0x55572152:  add    BYTE PTR [eax],al
   0x55572154:  add    BYTE PTR [eax],al
   0x55572156:  add    BYTE PTR [eax],al
   0x55572158:  add    BYTE PTR [eax],al
   0x5557215a:  add    BYTE PTR [eax],al
   0x5557215c:  add    BYTE PTR [eax],al
   0x5557215e:  add    BYTE PTR [eax],al
   0x55572160:  add    BYTE PTR [eax],al
   0x55572162:  add    BYTE PTR [eax],al
   0x55572164:  add    BYTE PTR [eax],al
   0x55572166:  add    BYTE PTR [eax],al
   0x55572168:  add    BYTE PTR [eax],al
   0x5557216a:  add    BYTE PTR [eax],al
   0x5557216c:  add    BYTE PTR [eax],al
   0x5557216e:  add    BYTE PTR [eax],al
   0x55572170:  add    BYTE PTR [eax],al
   0x55572172:  add    BYTE PTR [eax],al
   0x55572174:  add    BYTE PTR [eax],al
   0x55572176:  add    BYTE PTR [eax],al
   0x55572178:  add    BYTE PTR [eax],al
   0x5557217a:  add    BYTE PTR [eax],al
   0x5557217c:  add    BYTE PTR [eax],al
   0x5557217e:  add    BYTE PTR [eax],al
   0x55572180:  add    BYTE PTR [eax],al
   0x55572182:  add    BYTE PTR [eax],al
   0x55572184:  add    BYTE PTR [eax],al
   0x55572186:  add    BYTE PTR [eax],al
   0x55572188:  add    BYTE PTR [eax],al
   0x5557218a:  add    BYTE PTR [eax],al
   0x5557218c:  add    BYTE PTR [eax],al
   0x5557218e:  add    BYTE PTR [eax],al
   0x55572190:  add    BYTE PTR [eax],al
   0x55572192:  add    BYTE PTR [eax],al
   0x55572194:  add    BYTE PTR [eax],al
   0x55572196:  add    BYTE PTR [eax],al
   0x55572198:  add    BYTE PTR [eax],al
   0x5557219a:  add    BYTE PTR [eax],al
   0x5557219c:  add    BYTE PTR [eax],al
   0x5557219e:  add    BYTE PTR [eax],al
   0x555721a0:  add    BYTE PTR [eax],al
   0x555721a2:  add    BYTE PTR [eax],al
   0x555721a4:  add    BYTE PTR [eax],al
   0x555721a6:  add    BYTE PTR [eax],al
   0x555721a8:  add    BYTE PTR [eax],al
   0x555721aa:  add    BYTE PTR [eax],al
   0x555721ac:  add    BYTE PTR [eax],al
   0x555721ae:  add    BYTE PTR [eax],al
   0x555721b0:  add    BYTE PTR [eax],al
   0x555721b2:  add    BYTE PTR [eax],al
   0x555721b4:  add    BYTE PTR [eax],al
   0x555721b6:  add    BYTE PTR [eax],al
   0x555721b8:  add    BYTE PTR [eax],al
   0x555721ba:  add    BYTE PTR [eax],al
   0x555721bc:  add    BYTE PTR [eax],al
   0x555721be:  add    BYTE PTR [eax],al
   0x555721c0:  add    BYTE PTR [eax],al
   0x555721c2:  add    BYTE PTR [eax],al
   0x555721c4:  add    BYTE PTR [eax],al
   0x555721c6:  add    BYTE PTR [eax],al
   0x555721c8:  add    BYTE PTR [eax],al
   0x555721ca:  add    BYTE PTR [eax],al
   0x555721cc:  add    BYTE PTR [eax],al
   0x555721ce:  add    BYTE PTR [eax],al
   0x555721d0:  add    BYTE PTR [eax],al
   0x555721d2:  add    BYTE PTR [eax],al
   0x555721d4:  add    BYTE PTR [eax],al
   0x555721d6:  add    BYTE PTR [eax],al
   0x555721d8:  add    BYTE PTR [eax],al
   0x555721da:  add    BYTE PTR [eax],al
   0x555721dc:  add    BYTE PTR [eax],al
   0x555721de:  add    BYTE PTR [eax],al
   0x555721e0:  add    BYTE PTR [eax],al
   0x555721e2:  add    BYTE PTR [eax],al
   0x555721e4:  add    BYTE PTR [eax],al
   0x555721e6:  add    BYTE PTR [eax],al
   0x555721e8:  add    BYTE PTR [eax],al
   0x555721ea:  add    BYTE PTR [eax],al
   0x555721ec:  add    BYTE PTR [eax],al
   0x555721ee:  add    BYTE PTR [eax],al
   0x555721f0:  add    BYTE PTR [eax],al
   0x555721f2:  add    BYTE PTR [eax],al
   0x555721f4:  add    BYTE PTR [eax],al
   0x555721f6:  add    BYTE PTR [eax],al
   0x555721f8:  add    BYTE PTR [eax],al
   0x555721fa:  add    BYTE PTR [eax],al
   0x555721fc:  add    BYTE PTR [eax],al
   0x555721fe:  add    BYTE PTR [eax],al
   0x55572200:  add    BYTE PTR [eax],al
   0x55572202:  add    BYTE PTR [eax],al
   0x55572204:  add    BYTE PTR [eax],al
   0x55572206:  add    BYTE PTR [eax],al
   0x55572208:  add    BYTE PTR [eax],al
   0x5557220a:  add    BYTE PTR [eax],al
   0x5557220c:  add    BYTE PTR [eax],al
   0x5557220e:  add    BYTE PTR [eax],al
   0x55572210:  add    BYTE PTR [eax],al
   0x55572212:  add    BYTE PTR [eax],al
   0x55572214:  add    BYTE PTR [eax],al
   0x55572216:  add    BYTE PTR [eax],al
   0x55572218:  add    BYTE PTR [eax],al
   0x5557221a:  add    BYTE PTR [eax],al
   0x5557221c:  add    BYTE PTR [eax],al
   0x5557221e:  add    BYTE PTR [eax],al
   0x55572220:  add    BYTE PTR [eax],al
   0x55572222:  add    BYTE PTR [eax],al
   0x55572224:  add    BYTE PTR [eax],al
   0x55572226:  add    BYTE PTR [eax],al
   0x55572228:  add    BYTE PTR [eax],al
   0x5557222a:  add    BYTE PTR [eax],al
   0x5557222c:  add    BYTE PTR [eax],al
   0x5557222e:  add    BYTE PTR [eax],al
   0x55572230:  add    BYTE PTR [eax],al
   0x55572232:  add    BYTE PTR [eax],al
   0x55572234:  add    BYTE PTR [eax],al
   0x55572236:  add    BYTE PTR [eax],al
   0x55572238:  add    BYTE PTR [eax],al
   0x5557223a:  add    BYTE PTR [eax],al
   0x5557223c:  add    BYTE PTR [eax],al
   0x5557223e:  add    BYTE PTR [eax],al
   0x55572240:  add    BYTE PTR [eax],al
   0x55572242:  add    BYTE PTR [eax],al
   0x55572244:  add    BYTE PTR [eax],al
   0x55572246:  add    BYTE PTR [eax],al
   0x55572248:  add    BYTE PTR [eax],al
   0x5557224a:  add    BYTE PTR [eax],al
   0x5557224c:  add    BYTE PTR [eax],al
   0x5557224e:  add    BYTE PTR [eax],al
   0x55572250:  add    BYTE PTR [eax],al
   0x55572252:  add    BYTE PTR [eax],al
   0x55572254:  add    BYTE PTR [eax],al
   0x55572256:  add    BYTE PTR [eax],al
   0x55572258:  add    BYTE PTR [eax],al
   0x5557225a:  add    BYTE PTR [eax],al
   0x5557225c:  add    BYTE PTR [eax],al
   0x5557225e:  add    BYTE PTR [eax],al
   0x55572260:  add    BYTE PTR [eax],al
   0x55572262:  add    BYTE PTR [eax],al
   0x55572264:  add    BYTE PTR [eax],al
   0x55572266:  add    BYTE PTR [eax],al
   0x55572268:  add    BYTE PTR [eax],al
   0x5557226a:  add    BYTE PTR [eax],al
   0x5557226c:  add    BYTE PTR [eax],al
   0x5557226e:  add    BYTE PTR [eax],al
   0x55572270:  add    BYTE PTR [eax],al
   0x55572272:  add    BYTE PTR [eax],al
   0x55572274:  add    BYTE PTR [eax],al
   0x55572276:  add    BYTE PTR [eax],al
   0x55572278:  add    BYTE PTR [eax],al
   0x5557227a:  add    BYTE PTR [eax],al
   0x5557227c:  add    BYTE PTR [eax],al
   0x5557227e:  add    BYTE PTR [eax],al
   0x55572280:  add    BYTE PTR [eax],al
   0x55572282:  add    BYTE PTR [eax],al
   0x55572284:  add    BYTE PTR [eax],al
   0x55572286:  add    BYTE PTR [eax],al
   0x55572288:  add    BYTE PTR [eax],al
   0x5557228a:  add    BYTE PTR [eax],al
   0x5557228c:  add    BYTE PTR [eax],al
   0x5557228e:  add    BYTE PTR [eax],al
   0x55572290:  add    BYTE PTR [eax],al
   0x55572292:  add    BYTE PTR [eax],al
   0x55572294:  add    BYTE PTR [eax],al
   0x55572296:  add    BYTE PTR [eax],al
   0x55572298:  add    BYTE PTR [eax],al
   0x5557229a:  add    BYTE PTR [eax],al
   0x5557229c:  add    BYTE PTR [eax],al
   0x5557229e:  add    BYTE PTR [eax],al
   0x555722a0:  add    BYTE PTR [eax],al
   0x555722a2:  add    BYTE PTR [eax],al
   0x555722a4:  add    BYTE PTR [eax],al
   0x555722a6:  add    BYTE PTR [eax],al
   0x555722a8:  add    BYTE PTR [eax],al
   0x555722aa:  add    BYTE PTR [eax],al
   0x555722ac:  add    BYTE PTR [eax],al
   0x555722ae:  add    BYTE PTR [eax],al
   0x555722b0:  add    BYTE PTR [eax],al
   0x555722b2:  add    BYTE PTR [eax],al
   0x555722b4:  add    BYTE PTR [eax],al
   0x555722b6:  add    BYTE PTR [eax],al
   0x555722b8:  add    BYTE PTR [eax],al
   0x555722ba:  add    BYTE PTR [eax],al
   0x555722bc:  add    BYTE PTR [eax],al
   0x555722be:  add    BYTE PTR [eax],al
   0x555722c0:  add    BYTE PTR [eax],al
   0x555722c2:  add    BYTE PTR [eax],al
   0x555722c4:  add    BYTE PTR [eax],al
   0x555722c6:  add    BYTE PTR [eax],al
   0x555722c8:  add    BYTE PTR [eax],al
   0x555722ca:  add    BYTE PTR [eax],al
   0x555722cc:  add    BYTE PTR [eax],al
   0x555722ce:  add    BYTE PTR [eax],al
   0x555722d0:  add    BYTE PTR [eax],al
   0x555722d2:  add    BYTE PTR [eax],al
   0x555722d4:  add    BYTE PTR [eax],al
   0x555722d6:  add    BYTE PTR [eax],al
   0x555722d8:  add    BYTE PTR [eax],al
   0x555722da:  add    BYTE PTR [eax],al
   0x555722dc:  add    BYTE PTR [eax],al
   0x555722de:  add    BYTE PTR [eax],al
   0x555722e0:  add    BYTE PTR [eax],al
   0x555722e2:  add    BYTE PTR [eax],al
   0x555722e4:  add    BYTE PTR [eax],al
   0x555722e6:  add    BYTE PTR [eax],al
   0x555722e8:  add    BYTE PTR [eax],al
   0x555722ea:  add    BYTE PTR [eax],al
   0x555722ec:  add    BYTE PTR [eax],al
   0x555722ee:  add    BYTE PTR [eax],al
   0x555722f0:  add    BYTE PTR [eax],al
   0x555722f2:  add    BYTE PTR [eax],al
   0x555722f4:  add    BYTE PTR [eax],al
   0x555722f6:  add    BYTE PTR [eax],al
   0x555722f8:  add    BYTE PTR [eax],al
   0x555722fa:  add    BYTE PTR [eax],al
   0x555722fc:  add    BYTE PTR [eax],al
   0x555722fe:  add    BYTE PTR [eax],al
   0x55572300:  add    BYTE PTR [eax],al
   0x55572302:  add    BYTE PTR [eax],al
   0x55572304:  add    BYTE PTR [eax],al
   0x55572306:  add    BYTE PTR [eax],al
   0x55572308:  add    BYTE PTR [eax],al
   0x5557230a:  add    BYTE PTR [eax],al
   0x5557230c:  add    BYTE PTR [eax],al
   0x5557230e:  add    BYTE PTR [eax],al
   0x55572310:  add    BYTE PTR [eax],al
   0x55572312:  add    BYTE PTR [eax],al
   0x55572314:  add    BYTE PTR [eax],al
   0x55572316:  add    BYTE PTR [eax],al
   0x55572318:  add    BYTE PTR [eax],al
   0x5557231a:  add    BYTE PTR [eax],al
   0x5557231c:  add    BYTE PTR [eax],al
   0x5557231e:  add    BYTE PTR [eax],al
   0x55572320:  add    BYTE PTR [eax],al
   0x55572322:  add    BYTE PTR [eax],al
   0x55572324:  add    BYTE PTR [eax],al
   0x55572326:  add    BYTE PTR [eax],al
   0x55572328:  add    BYTE PTR [eax],al
   0x5557232a:  add    BYTE PTR [eax],al
   0x5557232c:  add    BYTE PTR [eax],al
   0x5557232e:  add    BYTE PTR [eax],al
   0x55572330:  add    BYTE PTR [eax],al
   0x55572332:  add    BYTE PTR [eax],al
   0x55572334:  add    BYTE PTR [eax],al
   0x55572336:  add    BYTE PTR [eax],al
   0x55572338:  add    BYTE PTR [eax],al
   0x5557233a:  add    BYTE PTR [eax],al
   0x5557233c:  add    BYTE PTR [eax],al
   0x5557233e:  add    BYTE PTR [eax],al
   0x55572340:  add    BYTE PTR [eax],al
   0x55572342:  add    BYTE PTR [eax],al
   0x55572344:  add    BYTE PTR [eax],al
   0x55572346:  add    BYTE PTR [eax],al
   0x55572348:  add    BYTE PTR [eax],al
   0x5557234a:  add    BYTE PTR [eax],al
   0x5557234c:  add    BYTE PTR [eax],al
   0x5557234e:  add    BYTE PTR [eax],al
   0x55572350:  add    BYTE PTR [eax],al
   0x55572352:  add    BYTE PTR [eax],al
   0x55572354:  add    BYTE PTR [eax],al
   0x55572356:  add    BYTE PTR [eax],al
   0x55572358:  add    BYTE PTR [eax],al
   0x5557235a:  add    BYTE PTR [eax],al
   0x5557235c:  add    BYTE PTR [eax],al
   0x5557235e:  add    BYTE PTR [eax],al
   0x55572360:  add    BYTE PTR [eax],al
   0x55572362:  add    BYTE PTR [eax],al
   0x55572364:  add    BYTE PTR [eax],al
   0x55572366:  add    BYTE PTR [eax],al
   0x55572368:  add    BYTE PTR [eax],al
   0x5557236a:  add    BYTE PTR [eax],al
   0x5557236c:  add    BYTE PTR [eax],al
   0x5557236e:  add    BYTE PTR [eax],al
   0x55572370:  add    BYTE PTR [eax],al
   0x55572372:  add    BYTE PTR [eax],al
   0x55572374:  add    BYTE PTR [eax],al
   0x55572376:  add    BYTE PTR [eax],al
   0x55572378:  add    BYTE PTR [eax],al
   0x5557237a:  add    BYTE PTR [eax],al
   0x5557237c:  add    BYTE PTR [eax],al
   0x5557237e:  add    BYTE PTR [eax],al
   0x55572380:  add    BYTE PTR [eax],al
   0x55572382:  add    BYTE PTR [eax],al
   0x55572384:  add    BYTE PTR [eax],al
   0x55572386:  add    BYTE PTR [eax],al
   0x55572388:  add    BYTE PTR [eax],al
   0x5557238a:  add    BYTE PTR [eax],al
   0x5557238c:  add    BYTE PTR [eax],al
   0x5557238e:  add    BYTE PTR [eax],al
   0x55572390:  add    BYTE PTR [eax],al
   0x55572392:  add    BYTE PTR [eax],al
   0x55572394:  add    BYTE PTR [eax],al
   0x55572396:  add    BYTE PTR [eax],al
   0x55572398:  add    BYTE PTR [eax],al
   0x5557239a:  add    BYTE PTR [eax],al
   0x5557239c:  add    BYTE PTR [eax],al
   0x5557239e:  add    BYTE PTR [eax],al
   0x555723a0:  add    BYTE PTR [eax],al
   0x555723a2:  add    BYTE PTR [eax],al
   0x555723a4:  add    BYTE PTR [eax],al
   0x555723a6:  add    BYTE PTR [eax],al
   0x555723a8:  add    BYTE PTR [eax],al
   0x555723aa:  add    BYTE PTR [eax],al
   0x555723ac:  add    BYTE PTR [eax],al
   0x555723ae:  add    BYTE PTR [eax],al
   0x555723b0:  add    BYTE PTR [eax],al
   0x555723b2:  add    BYTE PTR [eax],al
   0x555723b4:  add    BYTE PTR [eax],al
   0x555723b6:  add    BYTE PTR [eax],al
   0x555723b8:  add    BYTE PTR [eax],al
   0x555723ba:  add    BYTE PTR [eax],al
   0x555723bc:  add    BYTE PTR [eax],al
   0x555723be:  add    BYTE PTR [eax],al
   0x555723c0:  add    BYTE PTR [eax],al
   0x555723c2:  add    BYTE PTR [eax],al
   0x555723c4:  add    BYTE PTR [eax],al
   0x555723c6:  add    BYTE PTR [eax],al
   0x555723c8:  add    BYTE PTR [eax],al
   0x555723ca:  add    BYTE PTR [eax],al
   0x555723cc:  add    BYTE PTR [eax],al
   0x555723ce:  add    BYTE PTR [eax],al
   0x555723d0:  add    BYTE PTR [eax],al
   0x555723d2:  add    BYTE PTR [eax],al
   0x555723d4:  add    BYTE PTR [eax],al
   0x555723d6:  add    BYTE PTR [eax],al
   0x555723d8:  add    BYTE PTR [eax],al
   0x555723da:  add    BYTE PTR [eax],al
   0x555723dc:  add    BYTE PTR [eax],al
   0x555723de:  add    BYTE PTR [eax],al
   0x555723e0:  add    BYTE PTR [eax],al
   0x555723e2:  add    BYTE PTR [eax],al
   0x555723e4:  add    BYTE PTR [eax],al
   0x555723e6:  add    BYTE PTR [eax],al
   0x555723e8:  add    BYTE PTR [eax],al
   0x555723ea:  add    BYTE PTR [eax],al
   0x555723ec:  add    BYTE PTR [eax],al
   0x555723ee:  add    BYTE PTR [eax],al
   0x555723f0:  add    BYTE PTR [eax],al
   0x555723f2:  add    BYTE PTR [eax],al
   0x555723f4:  add    BYTE PTR [eax],al
   0x555723f6:  add    BYTE PTR [eax],al
   0x555723f8:  add    BYTE PTR [eax],al
   0x555723fa:  add    BYTE PTR [eax],al
   0x555723fc:  add    BYTE PTR [eax],al
   0x555723fe:  add    BYTE PTR [eax],al
   0x55572400:  add    BYTE PTR [eax],al
   0x55572402:  add    BYTE PTR [eax],al
   0x55572404:  add    BYTE PTR [eax],al
   0x55572406:  add    BYTE PTR [eax],al
   0x55572408:  add    BYTE PTR [eax],al
   0x5557240a:  add    BYTE PTR [eax],al
   0x5557240c:  add    BYTE PTR [eax],al
   0x5557240e:  add    BYTE PTR [eax],al
   0x55572410:  add    BYTE PTR [eax],al
   0x55572412:  add    BYTE PTR [eax],al
   0x55572414:  add    BYTE PTR [eax],al
   0x55572416:  add    BYTE PTR [eax],al
   0x55572418:  add    BYTE PTR [eax],al
   0x5557241a:  add    BYTE PTR [eax],al
   0x5557241c:  add    BYTE PTR [eax],al
   0x5557241e:  add    BYTE PTR [eax],al
   0x55572420:  add    BYTE PTR [eax],al
   0x55572422:  add    BYTE PTR [eax],al
   0x55572424:  add    BYTE PTR [eax],al
   0x55572426:  add    BYTE PTR [eax],al
   0x55572428:  add    BYTE PTR [eax],al
   0x5557242a:  add    BYTE PTR [eax],al
   0x5557242c:  add    BYTE PTR [eax],al
   0x5557242e:  add    BYTE PTR [eax],al
   0x55572430:  add    BYTE PTR [eax],al
   0x55572432:  add    BYTE PTR [eax],al
   0x55572434:  add    BYTE PTR [eax],al
   0x55572436:  add    BYTE PTR [eax],al
   0x55572438:  add    BYTE PTR [eax],al
   0x5557243a:  add    BYTE PTR [eax],al
   0x5557243c:  add    BYTE PTR [eax],al
   0x5557243e:  add    BYTE PTR [eax],al
   0x55572440:  add    BYTE PTR [eax],al
   0x55572442:  add    BYTE PTR [eax],al
   0x55572444:  add    BYTE PTR [eax],al
   0x55572446:  add    BYTE PTR [eax],al
   0x55572448:  add    BYTE PTR [eax],al
   0x5557244a:  add    BYTE PTR [eax],al
   0x5557244c:  add    BYTE PTR [eax],al
   0x5557244e:  add    BYTE PTR [eax],al
   0x55572450:  add    BYTE PTR [eax],al
   0x55572452:  add    BYTE PTR [eax],al
   0x55572454:  add    BYTE PTR [eax],al
   0x55572456:  add    BYTE PTR [eax],al
   0x55572458:  add    BYTE PTR [eax],al
   0x5557245a:  add    BYTE PTR [eax],al
   0x5557245c:  add    BYTE PTR [eax],al
   0x5557245e:  add    BYTE PTR [eax],al
   0x55572460:  add    BYTE PTR [eax],al
   0x55572462:  add    BYTE PTR [eax],al
   0x55572464:  add    BYTE PTR [eax],al
   0x55572466:  add    BYTE PTR [eax],al
   0x55572468:  add    BYTE PTR [eax],al
   0x5557246a:  add    BYTE PTR [eax],al
   0x5557246c:  add    BYTE PTR [eax],al
   0x5557246e:  add    BYTE PTR [eax],al
   0x55572470:  add    BYTE PTR [eax],al
   0x55572472:  add    BYTE PTR [eax],al
   0x55572474:  add    BYTE PTR [eax],al
   0x55572476:  add    BYTE PTR [eax],al
   0x55572478:  add    BYTE PTR [eax],al
   0x5557247a:  add    BYTE PTR [eax],al
   0x5557247c:  add    BYTE PTR [eax],al
   0x5557247e:  add    BYTE PTR [eax],al
   0x55572480:  add    BYTE PTR [eax],al
   0x55572482:  add    BYTE PTR [eax],al
   0x55572484:  add    BYTE PTR [eax],al
   0x55572486:  add    BYTE PTR [eax],al
   0x55572488:  add    BYTE PTR [eax],al
   0x5557248a:  add    BYTE PTR [eax],al
   0x5557248c:  add    BYTE PTR [eax],al
   0x5557248e:  add    BYTE PTR [eax],al
   0x55572490:  add    BYTE PTR [eax],al
   0x55572492:  add    BYTE PTR [eax],al
   0x55572494:  add    BYTE PTR [eax],al
   0x55572496:  add    BYTE PTR [eax],al
   0x55572498:  add    BYTE PTR [eax],al
   0x5557249a:  add    BYTE PTR [eax],al
   0x5557249c:  add    BYTE PTR [eax],al
   0x5557249e:  add    BYTE PTR [eax],al
   0x555724a0:  add    BYTE PTR [eax],al
   0x555724a2:  add    BYTE PTR [eax],al
   0x555724a4:  add    BYTE PTR [eax],al
   0x555724a6:  add    BYTE PTR [eax],al
   0x555724a8:  add    BYTE PTR [eax],al
   0x555724aa:  add    BYTE PTR [eax],al
   0x555724ac:  add    BYTE PTR [eax],al
   0x555724ae:  add    BYTE PTR [eax],al
   0x555724b0:  add    BYTE PTR [eax],al
   0x555724b2:  add    BYTE PTR [eax],al
   0x555724b4:  add    BYTE PTR [eax],al
   0x555724b6:  add    BYTE PTR [eax],al
   0x555724b8:  add    BYTE PTR [eax],al
   0x555724ba:  add    BYTE PTR [eax],al
   0x555724bc:  add    BYTE PTR [eax],al
   0x555724be:  add    BYTE PTR [eax],al
   0x555724c0:  add    BYTE PTR [eax],al
   0x555724c2:  add    BYTE PTR [eax],al
   0x555724c4:  add    BYTE PTR [eax],al
   0x555724c6:  add    BYTE PTR [eax],al
   0x555724c8:  add    BYTE PTR [eax],al
   0x555724ca:  add    BYTE PTR [eax],al
   0x555724cc:  add    BYTE PTR [eax],al
   0x555724ce:  add    BYTE PTR [eax],al
   0x555724d0:  add    BYTE PTR [eax],al
   0x555724d2:  add    BYTE PTR [eax],al
   0x555724d4:  add    BYTE PTR [eax],al
   0x555724d6:  add    BYTE PTR [eax],al
   0x555724d8:  add    BYTE PTR [eax],al
   0x555724da:  add    BYTE PTR [eax],al
   0x555724dc:  add    BYTE PTR [eax],al
   0x555724de:  add    BYTE PTR [eax],al
   0x555724e0:  add    BYTE PTR [eax],al
   0x555724e2:  add    BYTE PTR [eax],al
   0x555724e4:  add    BYTE PTR [eax],al
   0x555724e6:  add    BYTE PTR [eax],al
   0x555724e8:  add    BYTE PTR [eax],al
   0x555724ea:  add    BYTE PTR [eax],al
   0x555724ec:  add    BYTE PTR [eax],al
   0x555724ee:  add    BYTE PTR [eax],al
   0x555724f0:  add    BYTE PTR [eax],al
   0x555724f2:  add    BYTE PTR [eax],al
   0x555724f4:  add    BYTE PTR [eax],al
   0x555724f6:  add    BYTE PTR [eax],al
   0x555724f8:  add    BYTE PTR [eax],al
   0x555724fa:  add    BYTE PTR [eax],al
   0x555724fc:  add    BYTE PTR [eax],al
   0x555724fe:  add    BYTE PTR [eax],al
   0x55572500:  add    BYTE PTR [eax],al
   0x55572502:  add    BYTE PTR [eax],al
   0x55572504:  add    BYTE PTR [eax],al
   0x55572506:  add    BYTE PTR [eax],al
   0x55572508:  add    BYTE PTR [eax],al
   0x5557250a:  add    BYTE PTR [eax],al
   0x5557250c:  add    BYTE PTR [eax],al
   0x5557250e:  add    BYTE PTR [eax],al
   0x55572510:  add    BYTE PTR [eax],al
   0x55572512:  add    BYTE PTR [eax],al
   0x55572514:  add    BYTE PTR [eax],al
   0x55572516:  add    BYTE PTR [eax],al
   0x55572518:  add    BYTE PTR [eax],al
   0x5557251a:  add    BYTE PTR [eax],al
   0x5557251c:  add    BYTE PTR [eax],al
   0x5557251e:  add    BYTE PTR [eax],al
   0x55572520:  add    BYTE PTR [eax],al
   0x55572522:  add    BYTE PTR [eax],al
   0x55572524:  add    BYTE PTR [eax],al
   0x55572526:  add    BYTE PTR [eax],al
   0x55572528:  add    BYTE PTR [eax],al
   0x5557252a:  add    BYTE PTR [eax],al
   0x5557252c:  add    BYTE PTR [eax],al
   0x5557252e:  add    BYTE PTR [eax],al
   0x55572530:  add    BYTE PTR [eax],al
   0x55572532:  add    BYTE PTR [eax],al
   0x55572534:  add    BYTE PTR [eax],al
   0x55572536:  add    BYTE PTR [eax],al
   0x55572538:  add    BYTE PTR [eax],al
   0x5557253a:  add    BYTE PTR [eax],al
   0x5557253c:  add    BYTE PTR [eax],al
   0x5557253e:  add    BYTE PTR [eax],al
   0x55572540:  add    BYTE PTR [eax],al
   0x55572542:  add    BYTE PTR [eax],al
   0x55572544:  add    BYTE PTR [eax],al
   0x55572546:  add    BYTE PTR [eax],al
   0x55572548:  add    BYTE PTR [eax],al
   0x5557254a:  add    BYTE PTR [eax],al
   0x5557254c:  add    BYTE PTR [eax],al
   0x5557254e:  add    BYTE PTR [eax],al
   0x55572550:  add    BYTE PTR [eax],al
   0x55572552:  add    BYTE PTR [eax],al
   0x55572554:  add    BYTE PTR [eax],al
   0x55572556:  add    BYTE PTR [eax],al
   0x55572558:  add    BYTE PTR [eax],al
   0x5557255a:  add    BYTE PTR [eax],al
   0x5557255c:  add    BYTE PTR [eax],al
   0x5557255e:  add    BYTE PTR [eax],al
   0x55572560:  add    BYTE PTR [eax],al
   0x55572562:  add    BYTE PTR [eax],al
   0x55572564:  add    BYTE PTR [eax],al
   0x55572566:  add    BYTE PTR [eax],al
   0x55572568:  add    BYTE PTR [eax],al
   0x5557256a:  add    BYTE PTR [eax],al
   0x5557256c:  add    BYTE PTR [eax],al
   0x5557256e:  add    BYTE PTR [eax],al
   0x55572570:  add    BYTE PTR [eax],al
   0x55572572:  add    BYTE PTR [eax],al
   0x55572574:  add    BYTE PTR [eax],al
   0x55572576:  add    BYTE PTR [eax],al
   0x55572578:  add    BYTE PTR [eax],al
   0x5557257a:  add    BYTE PTR [eax],al
   0x5557257c:  add    BYTE PTR [eax],al
   0x5557257e:  add    BYTE PTR [eax],al
   0x55572580:  add    BYTE PTR [eax],al
   0x55572582:  add    BYTE PTR [eax],al
   0x55572584:  add    BYTE PTR [eax],al
   0x55572586:  add    BYTE PTR [eax],al
   0x55572588:  add    BYTE PTR [eax],al
   0x5557258a:  add    BYTE PTR [eax],al
   0x5557258c:  add    BYTE PTR [eax],al
   0x5557258e:  add    BYTE PTR [eax],al
   0x55572590:  add    BYTE PTR [eax],al
   0x55572592:  add    BYTE PTR [eax],al
   0x55572594:  add    BYTE PTR [eax],al
   0x55572596:  add    BYTE PTR [eax],al
   0x55572598:  add    BYTE PTR [eax],al
   0x5557259a:  add    BYTE PTR [eax],al
   0x5557259c:  add    BYTE PTR [eax],al
   0x5557259e:  add    BYTE PTR [eax],al
   0x555725a0:  add    BYTE PTR [eax],al
   0x555725a2:  add    BYTE PTR [eax],al
   0x555725a4:  add    BYTE PTR [eax],al
   0x555725a6:  add    BYTE PTR [eax],al
   0x555725a8:  add    BYTE PTR [eax],al
   0x555725aa:  add    BYTE PTR [eax],al
   0x555725ac:  add    BYTE PTR [eax],al
   0x555725ae:  add    BYTE PTR [eax],al
   0x555725b0:  add    BYTE PTR [eax],al
   0x555725b2:  add    BYTE PTR [eax],al
   0x555725b4:  add    BYTE PTR [eax],al
   0x555725b6:  add    BYTE PTR [eax],al
   0x555725b8:  add    BYTE PTR [eax],al
   0x555725ba:  add    BYTE PTR [eax],al
   0x555725bc:  add    BYTE PTR [eax],al
   0x555725be:  add    BYTE PTR [eax],al
   0x555725c0:  add    BYTE PTR [eax],al
   0x555725c2:  add    BYTE PTR [eax],al
   0x555725c4:  add    BYTE PTR [eax],al
   0x555725c6:  add    BYTE PTR [eax],al
   0x555725c8:  add    BYTE PTR [eax],al
   0x555725ca:  add    BYTE PTR [eax],al
   0x555725cc:  add    BYTE PTR [eax],al
   0x555725ce:  add    BYTE PTR [eax],al
   0x555725d0:  add    BYTE PTR [eax],al
   0x555725d2:  add    BYTE PTR [eax],al
   0x555725d4:  add    BYTE PTR [eax],al
   0x555725d6:  add    BYTE PTR [eax],al
   0x555725d8:  add    BYTE PTR [eax],al
   0x555725da:  add    BYTE PTR [eax],al
   0x555725dc:  add    BYTE PTR [eax],al
   0x555725de:  add    BYTE PTR [eax],al
   0x555725e0:  add    BYTE PTR [eax],al
   0x555725e2:  add    BYTE PTR [eax],al
   0x555725e4:  add    BYTE PTR [eax],al
   0x555725e6:  add    BYTE PTR [eax],al
   0x555725e8:  add    BYTE PTR [eax],al
   0x555725ea:  add    BYTE PTR [eax],al
   0x555725ec:  add    BYTE PTR [eax],al
   0x555725ee:  add    BYTE PTR [eax],al
   0x555725f0:  add    BYTE PTR [eax],al
   0x555725f2:  add    BYTE PTR [eax],al
   0x555725f4:  add    BYTE PTR [eax],al
   0x555725f6:  add    BYTE PTR [eax],al
   0x555725f8:  add    BYTE PTR [eax],al
   0x555725fa:  add    BYTE PTR [eax],al
   0x555725fc:  add    BYTE PTR [eax],al
   0x555725fe:  add    BYTE PTR [eax],al
   0x55572600:  add    BYTE PTR [eax],al
   0x55572602:  add    BYTE PTR [eax],al
   0x55572604:  add    BYTE PTR [eax],al
   0x55572606:  add    BYTE PTR [eax],al
   0x55572608:  add    BYTE PTR [eax],al
   0x5557260a:  add    BYTE PTR [eax],al
   0x5557260c:  add    BYTE PTR [eax],al
   0x5557260e:  add    BYTE PTR [eax],al
   0x55572610:  add    BYTE PTR [eax],al
   0x55572612:  add    BYTE PTR [eax],al
   0x55572614:  add    BYTE PTR [eax],al
   0x55572616:  add    BYTE PTR [eax],al
   0x55572618:  add    BYTE PTR [eax],al
   0x5557261a:  add    BYTE PTR [eax],al
   0x5557261c:  add    BYTE PTR [eax],al
   0x5557261e:  add    BYTE PTR [eax],al
   0x55572620:  add    BYTE PTR [eax],al
   0x55572622:  add    BYTE PTR [eax],al
   0x55572624:  add    BYTE PTR [eax],al
   0x55572626:  add    BYTE PTR [eax],al
   0x55572628:  add    BYTE PTR [eax],al
   0x5557262a:  add    BYTE PTR [eax],al
   0x5557262c:  add    BYTE PTR [eax],al
   0x5557262e:  add    BYTE PTR [eax],al
   0x55572630:  add    BYTE PTR [eax],al
   0x55572632:  add    BYTE PTR [eax],al
   0x55572634:  add    BYTE PTR [eax],al
   0x55572636:  add    BYTE PTR [eax],al
   0x55572638:  add    BYTE PTR [eax],al
   0x5557263a:  add    BYTE PTR [eax],al
   0x5557263c:  add    BYTE PTR [eax],al
   0x5557263e:  add    BYTE PTR [eax],al
   0x55572640:  add    BYTE PTR [eax],al
   0x55572642:  add    BYTE PTR [eax],al
   0x55572644:  add    BYTE PTR [eax],al
   0x55572646:  add    BYTE PTR [eax],al
   0x55572648:  add    BYTE PTR [eax],al
   0x5557264a:  add    BYTE PTR [eax],al
   0x5557264c:  add    BYTE PTR [eax],al
   0x5557264e:  add    BYTE PTR [eax],al
   0x55572650:  add    BYTE PTR [eax],al
   0x55572652:  add    BYTE PTR [eax],al
   0x55572654:  add    BYTE PTR [eax],al
   0x55572656:  add    BYTE PTR [eax],al
   0x55572658:  add    BYTE PTR [eax],al
   0x5557265a:  add    BYTE PTR [eax],al
   0x5557265c:  add    BYTE PTR [eax],al
   0x5557265e:  add    BYTE PTR [eax],al
   0x55572660:  add    BYTE PTR [eax],al
   0x55572662:  add    BYTE PTR [eax],al
   0x55572664:  add    BYTE PTR [eax],al
   0x55572666:  add    BYTE PTR [eax],al
   0x55572668:  add    BYTE PTR [eax],al
   0x5557266a:  add    BYTE PTR [eax],al
   0x5557266c:  add    BYTE PTR [eax],al
   0x5557266e:  add    BYTE PTR [eax],al
   0x55572670:  add    BYTE PTR [eax],al
   0x55572672:  add    BYTE PTR [eax],al
   0x55572674:  add    BYTE PTR [eax],al
   0x55572676:  add    BYTE PTR [eax],al
   0x55572678:  add    BYTE PTR [eax],al
   0x5557267a:  add    BYTE PTR [eax],al
   0x5557267c:  add    BYTE PTR [eax],al
   0x5557267e:  add    BYTE PTR [eax],al
   0x55572680:  add    BYTE PTR [eax],al
   0x55572682:  add    BYTE PTR [eax],al
   0x55572684:  add    BYTE PTR [eax],al
   0x55572686:  add    BYTE PTR [eax],al
   0x55572688:  add    BYTE PTR [eax],al
   0x5557268a:  add    BYTE PTR [eax],al
   0x5557268c:  add    BYTE PTR [eax],al
   0x5557268e:  add    BYTE PTR [eax],al
   0x55572690:  add    BYTE PTR [eax],al
   0x55572692:  add    BYTE PTR [eax],al
   0x55572694:  add    BYTE PTR [eax],al
   0x55572696:  add    BYTE PTR [eax],al
   0x55572698:  add    BYTE PTR [eax],al
   0x5557269a:  add    BYTE PTR [eax],al
   0x5557269c:  add    BYTE PTR [eax],al
   0x5557269e:  add    BYTE PTR [eax],al
   0x555726a0:  add    BYTE PTR [eax],al
   0x555726a2:  add    BYTE PTR [eax],al
   0x555726a4:  add    BYTE PTR [eax],al
   0x555726a6:  add    BYTE PTR [eax],al
   0x555726a8:  add    BYTE PTR [eax],al
   0x555726aa:  add    BYTE PTR [eax],al
   0x555726ac:  add    BYTE PTR [eax],al
   0x555726ae:  add    BYTE PTR [eax],al
   0x555726b0:  add    BYTE PTR [eax],al
   0x555726b2:  add    BYTE PTR [eax],al
   0x555726b4:  add    BYTE PTR [eax],al
   0x555726b6:  add    BYTE PTR [eax],al
   0x555726b8:  add    BYTE PTR [eax],al
   0x555726ba:  add    BYTE PTR [eax],al
   0x555726bc:  add    BYTE PTR [eax],al
   0x555726be:  add    BYTE PTR [eax],al
   0x555726c0:  add    BYTE PTR [eax],al
   0x555726c2:  add    BYTE PTR [eax],al
   0x555726c4:  add    BYTE PTR [eax],al
   0x555726c6:  add    BYTE PTR [eax],al
   0x555726c8:  add    BYTE PTR [eax],al
   0x555726ca:  add    BYTE PTR [eax],al
   0x555726cc:  add    BYTE PTR [eax],al
   0x555726ce:  add    BYTE PTR [eax],al
   0x555726d0:  add    BYTE PTR [eax],al
   0x555726d2:  add    BYTE PTR [eax],al
   0x555726d4:  add    BYTE PTR [eax],al
   0x555726d6:  add    BYTE PTR [eax],al
   0x555726d8:  add    BYTE PTR [eax],al
   0x555726da:  add    BYTE PTR [eax],al
   0x555726dc:  add    BYTE PTR [eax],al
   0x555726de:  add    BYTE PTR [eax],al
   0x555726e0:  add    BYTE PTR [eax],al
   0x555726e2:  add    BYTE PTR [eax],al
   0x555726e4:  add    BYTE PTR [eax],al
   0x555726e6:  add    BYTE PTR [eax],al
   0x555726e8:  add    BYTE PTR [eax],al
   0x555726ea:  add    BYTE PTR [eax],al
   0x555726ec:  add    BYTE PTR [eax],al
   0x555726ee:  add    BYTE PTR [eax],al
   0x555726f0:  add    BYTE PTR [eax],al
   0x555726f2:  add    BYTE PTR [eax],al
   0x555726f4:  add    BYTE PTR [eax],al
   0x555726f6:  add    BYTE PTR [eax],al
   0x555726f8:  add    BYTE PTR [eax],al
   0x555726fa:  add    BYTE PTR [eax],al
   0x555726fc:  add    BYTE PTR [eax],al
   0x555726fe:  add    BYTE PTR [eax],al
   0x55572700:  add    BYTE PTR [eax],al
   0x55572702:  add    BYTE PTR [eax],al
   0x55572704:  add    BYTE PTR [eax],al
   0x55572706:  add    BYTE PTR [eax],al
   0x55572708:  add    BYTE PTR [eax],al
   0x5557270a:  add    BYTE PTR [eax],al
   0x5557270c:  add    BYTE PTR [eax],al
   0x5557270e:  add    BYTE PTR [eax],al
   0x55572710:  add    BYTE PTR [eax],al
   0x55572712:  add    BYTE PTR [eax],al
   0x55572714:  add    BYTE PTR [eax],al
   0x55572716:  add    BYTE PTR [eax],al
   0x55572718:  add    BYTE PTR [eax],al
   0x5557271a:  add    BYTE PTR [eax],al
   0x5557271c:  add    BYTE PTR [eax],al
   0x5557271e:  add    BYTE PTR [eax],al
   0x55572720:  add    BYTE PTR [eax],al
   0x55572722:  add    BYTE PTR [eax],al
   0x55572724:  add    BYTE PTR [eax],al
   0x55572726:  add    BYTE PTR [eax],al
   0x55572728:  add    BYTE PTR [eax],al
   0x5557272a:  add    BYTE PTR [eax],al
   0x5557272c:  add    BYTE PTR [eax],al
   0x5557272e:  add    BYTE PTR [eax],al
   0x55572730:  add    BYTE PTR [eax],al
   0x55572732:  add    BYTE PTR [eax],al
   0x55572734:  add    BYTE PTR [eax],al
   0x55572736:  add    BYTE PTR [eax],al
   0x55572738:  add    BYTE PTR [eax],al
   0x5557273a:  add    BYTE PTR [eax],al
   0x5557273c:  add    BYTE PTR [eax],al
   0x5557273e:  add    BYTE PTR [eax],al
   0x55572740:  add    BYTE PTR [eax],al
   0x55572742:  add    BYTE PTR [eax],al
   0x55572744:  add    BYTE PTR [eax],al
   0x55572746:  add    BYTE PTR [eax],al
   0x55572748:  add    BYTE PTR [eax],al
   0x5557274a:  add    BYTE PTR [eax],al
   0x5557274c:  add    BYTE PTR [eax],al
   0x5557274e:  add    BYTE PTR [eax],al
   0x55572750:  add    BYTE PTR [eax],al
   0x55572752:  add    BYTE PTR [eax],al
   0x55572754:  add    BYTE PTR [eax],al
   0x55572756:  add    BYTE PTR [eax],al
   0x55572758:  add    BYTE PTR [eax],al
   0x5557275a:  add    BYTE PTR [eax],al
   0x5557275c:  add    BYTE PTR [eax],al
   0x5557275e:  add    BYTE PTR [eax],al
   0x55572760:  add    BYTE PTR [eax],al
   0x55572762:  add    BYTE PTR [eax],al
   0x55572764:  add    BYTE PTR [eax],al
   0x55572766:  add    BYTE PTR [eax],al
   0x55572768:  add    BYTE PTR [eax],al
   0x5557276a:  add    BYTE PTR [eax],al
   0x5557276c:  add    BYTE PTR [eax],al
   0x5557276e:  add    BYTE PTR [eax],al
   0x55572770:  add    BYTE PTR [eax],al
   0x55572772:  add    BYTE PTR [eax],al
   0x55572774:  add    BYTE PTR [eax],al
   0x55572776:  add    BYTE PTR [eax],al
   0x55572778:  add    BYTE PTR [eax],al
   0x5557277a:  add    BYTE PTR [eax],al
   0x5557277c:  add    BYTE PTR [eax],al
   0x5557277e:  add    BYTE PTR [eax],al
   0x55572780:  add    BYTE PTR [eax],al
   0x55572782:  add    BYTE PTR [eax],al
   0x55572784:  add    BYTE PTR [eax],al
   0x55572786:  add    BYTE PTR [eax],al
   0x55572788:  add    BYTE PTR [eax],al
   0x5557278a:  add    BYTE PTR [eax],al
   0x5557278c:  add    BYTE PTR [eax],al
   0x5557278e:  add    BYTE PTR [eax],al
   0x55572790:  add    BYTE PTR [eax],al
   0x55572792:  add    BYTE PTR [eax],al
   0x55572794:  add    BYTE PTR [eax],al
   0x55572796:  add    BYTE PTR [eax],al
   0x55572798:  add    BYTE PTR [eax],al
   0x5557279a:  add    BYTE PTR [eax],al
   0x5557279c:  add    BYTE PTR [eax],al
   0x5557279e:  add    BYTE PTR [eax],al
   0x555727a0:  add    BYTE PTR [eax],al
   0x555727a2:  add    BYTE PTR [eax],al
   0x555727a4:  add    BYTE PTR [eax],al
   0x555727a6:  add    BYTE PTR [eax],al
   0x555727a8:  add    BYTE PTR [eax],al
   0x555727aa:  add    BYTE PTR [eax],al
   0x555727ac:  add    BYTE PTR [eax],al
   0x555727ae:  add    BYTE PTR [eax],al
   0x555727b0:  add    BYTE PTR [eax],al
   0x555727b2:  add    BYTE PTR [eax],al
   0x555727b4:  add    BYTE PTR [eax],al
   0x555727b6:  add    BYTE PTR [eax],al
   0x555727b8:  add    BYTE PTR [eax],al
   0x555727ba:  add    BYTE PTR [eax],al
   0x555727bc:  add    BYTE PTR [eax],al
   0x555727be:  add    BYTE PTR [eax],al
   0x555727c0:  add    BYTE PTR [eax],al
   0x555727c2:  add    BYTE PTR [eax],al
   0x555727c4:  add    BYTE PTR [eax],al
   0x555727c6:  add    BYTE PTR [eax],al
   0x555727c8:  add    BYTE PTR [eax],al
   0x555727ca:  add    BYTE PTR [eax],al
   0x555727cc:  add    BYTE PTR [eax],al
   0x555727ce:  add    BYTE PTR [eax],al
   0x555727d0:  add    BYTE PTR [eax],al
   0x555727d2:  add    BYTE PTR [eax],al
   0x555727d4:  add    BYTE PTR [eax],al
   0x555727d6:  add    BYTE PTR [eax],al
   0x555727d8:  add    BYTE PTR [eax],al
   0x555727da:  add    BYTE PTR [eax],al
   0x555727dc:  add    BYTE PTR [eax],al
   0x555727de:  add    BYTE PTR [eax],al
   0x555727e0:  add    BYTE PTR [eax],al
   0x555727e2:  add    BYTE PTR [eax],al
   0x555727e4:  add    BYTE PTR [eax],al
   0x555727e6:  add    BYTE PTR [eax],al
   0x555727e8:  add    BYTE PTR [eax],al
   0x555727ea:  add    BYTE PTR [eax],al
   0x555727ec:  add    BYTE PTR [eax],al
   0x555727ee:  add    BYTE PTR [eax],al
   0x555727f0:  add    BYTE PTR [eax],al
   0x555727f2:  add    BYTE PTR [eax],al
   0x555727f4:  add    BYTE PTR [eax],al
   0x555727f6:  add    BYTE PTR [eax],al
   0x555727f8:  add    BYTE PTR [eax],al
   0x555727fa:  add    BYTE PTR [eax],al
   0x555727fc:  add    BYTE PTR [eax],al
   0x555727fe:  add    BYTE PTR [eax],al
   0x55572800:  add    BYTE PTR [eax],al
   0x55572802:  add    BYTE PTR [eax],al
   0x55572804:  add    BYTE PTR [eax],al
   0x55572806:  add    BYTE PTR [eax],al
   0x55572808:  add    BYTE PTR [eax],al
   0x5557280a:  add    BYTE PTR [eax],al
   0x5557280c:  add    BYTE PTR [eax],al
   0x5557280e:  add    BYTE PTR [eax],al
   0x55572810:  add    BYTE PTR [eax],al
   0x55572812:  add    BYTE PTR [eax],al
   0x55572814:  add    BYTE PTR [eax],al
   0x55572816:  add    BYTE PTR [eax],al
   0x55572818:  add    BYTE PTR [eax],al
   0x5557281a:  add    BYTE PTR [eax],al
   0x5557281c:  add    BYTE PTR [eax],al
   0x5557281e:  add    BYTE PTR [eax],al
   0x55572820:  add    BYTE PTR [eax],al
   0x55572822:  add    BYTE PTR [eax],al
   0x55572824:  add    BYTE PTR [eax],al
   0x55572826:  add    BYTE PTR [eax],al
   0x55572828:  add    BYTE PTR [eax],al
   0x5557282a:  add    BYTE PTR [eax],al
   0x5557282c:  add    BYTE PTR [eax],al
   0x5557282e:  add    BYTE PTR [eax],al
   0x55572830:  add    BYTE PTR [eax],al
   0x55572832:  add    BYTE PTR [eax],al
   0x55572834:  add    BYTE PTR [eax],al
   0x55572836:  add    BYTE PTR [eax],al
   0x55572838:  add    BYTE PTR [eax],al
   0x5557283a:  add    BYTE PTR [eax],al
   0x5557283c:  add    BYTE PTR [eax],al
   0x5557283e:  add    BYTE PTR [eax],al
   0x55572840:  add    BYTE PTR [eax],al
   0x55572842:  add    BYTE PTR [eax],al
   0x55572844:  add    BYTE PTR [eax],al
   0x55572846:  add    BYTE PTR [eax],al
   0x55572848:  add    BYTE PTR [eax],al
   0x5557284a:  add    BYTE PTR [eax],al
   0x5557284c:  add    BYTE PTR [eax],al
   0x5557284e:  add    BYTE PTR [eax],al
   0x55572850:  add    BYTE PTR [eax],al
   0x55572852:  add    BYTE PTR [eax],al
   0x55572854:  add    BYTE PTR [eax],al
   0x55572856:  add    BYTE PTR [eax],al
   0x55572858:  add    BYTE PTR [eax],al
   0x5557285a:  add    BYTE PTR [eax],al
   0x5557285c:  add    BYTE PTR [eax],al
   0x5557285e:  add    BYTE PTR [eax],al
   0x55572860:  add    BYTE PTR [eax],al
   0x55572862:  add    BYTE PTR [eax],al
   0x55572864:  add    BYTE PTR [eax],al
   0x55572866:  add    BYTE PTR [eax],al
   0x55572868:  add    BYTE PTR [eax],al
   0x5557286a:  add    BYTE PTR [eax],al
   0x5557286c:  add    BYTE PTR [eax],al
   0x5557286e:  add    BYTE PTR [eax],al
   0x55572870:  add    BYTE PTR [eax],al
   0x55572872:  add    BYTE PTR [eax],al
   0x55572874:  add    BYTE PTR [eax],al
   0x55572876:  add    BYTE PTR [eax],al
   0x55572878:  add    BYTE PTR [eax],al
   0x5557287a:  add    BYTE PTR [eax],al
   0x5557287c:  add    BYTE PTR [eax],al
   0x5557287e:  add    BYTE PTR [eax],al
   0x55572880:  add    BYTE PTR [eax],al
   0x55572882:  add    BYTE PTR [eax],al
   0x55572884:  add    BYTE PTR [eax],al
   0x55572886:  add    BYTE PTR [eax],al
   0x55572888:  add    BYTE PTR [eax],al
   0x5557288a:  add    BYTE PTR [eax],al
   0x5557288c:  add    BYTE PTR [eax],al
   0x5557288e:  add    BYTE PTR [eax],al
   0x55572890:  add    BYTE PTR [eax],al
   0x55572892:  add    BYTE PTR [eax],al
   0x55572894:  add    BYTE PTR [eax],al
   0x55572896:  add    BYTE PTR [eax],al
   0x55572898:  add    BYTE PTR [eax],al
   0x5557289a:  add    BYTE PTR [eax],al
   0x5557289c:  add    BYTE PTR [eax],al
   0x5557289e:  add    BYTE PTR [eax],al
   0x555728a0:  add    BYTE PTR [eax],al
   0x555728a2:  add    BYTE PTR [eax],al
   0x555728a4:  add    BYTE PTR [eax],al
   0x555728a6:  add    BYTE PTR [eax],al
   0x555728a8:  add    BYTE PTR [eax],al
   0x555728aa:  add    BYTE PTR [eax],al
   0x555728ac:  add    BYTE PTR [eax],al
   0x555728ae:  add    BYTE PTR [eax],al
   0x555728b0:  add    BYTE PTR [eax],al
   0x555728b2:  add    BYTE PTR [eax],al
   0x555728b4:  add    BYTE PTR [eax],al
   0x555728b6:  add    BYTE PTR [eax],al
   0x555728b8:  add    BYTE PTR [eax],al
   0x555728ba:  add    BYTE PTR [eax],al
   0x555728bc:  add    BYTE PTR [eax],al
   0x555728be:  add    BYTE PTR [eax],al
   0x555728c0:  add    BYTE PTR [eax],al
   0x555728c2:  add    BYTE PTR [eax],al
   0x555728c4:  add    BYTE PTR [eax],al
   0x555728c6:  add    BYTE PTR [eax],al
   0x555728c8:  add    BYTE PTR [eax],al
   0x555728ca:  add    BYTE PTR [eax],al
   0x555728cc:  add    BYTE PTR [eax],al
   0x555728ce:  add    BYTE PTR [eax],al
   0x555728d0:  add    BYTE PTR [eax],al
   0x555728d2:  add    BYTE PTR [eax],al
   0x555728d4:  add    BYTE PTR [eax],al
   0x555728d6:  add    BYTE PTR [eax],al
   0x555728d8:  add    BYTE PTR [eax],al
   0x555728da:  add    BYTE PTR [eax],al
   0x555728dc:  add    BYTE PTR [eax],al
   0x555728de:  add    BYTE PTR [eax],al
   0x555728e0:  add    BYTE PTR [eax],al
   0x555728e2:  add    BYTE PTR [eax],al
   0x555728e4:  add    BYTE PTR [eax],al
   0x555728e6:  add    BYTE PTR [eax],al
   0x555728e8:  add    BYTE PTR [eax],al
   0x555728ea:  add    BYTE PTR [eax],al
   0x555728ec:  add    BYTE PTR [eax],al
   0x555728ee:  add    BYTE PTR [eax],al
   0x555728f0:  add    BYTE PTR [eax],al
   0x555728f2:  add    BYTE PTR [eax],al
   0x555728f4:  add    BYTE PTR [eax],al
   0x555728f6:  add    BYTE PTR [eax],al
   0x555728f8:  add    BYTE PTR [eax],al
   0x555728fa:  add    BYTE PTR [eax],al
   0x555728fc:  add    BYTE PTR [eax],al
   0x555728fe:  add    BYTE PTR [eax],al
   0x55572900:  add    BYTE PTR [eax],al
   0x55572902:  add    BYTE PTR [eax],al
   0x55572904:  add    BYTE PTR [eax],al
   0x55572906:  add    BYTE PTR [eax],al
   0x55572908:  add    BYTE PTR [eax],al
   0x5557290a:  add    BYTE PTR [eax],al
   0x5557290c:  add    BYTE PTR [eax],al
   0x5557290e:  add    BYTE PTR [eax],al
   0x55572910:  add    BYTE PTR [eax],al
   0x55572912:  add    BYTE PTR [eax],al
   0x55572914:  add    BYTE PTR [eax],al
   0x55572916:  add    BYTE PTR [eax],al
   0x55572918:  add    BYTE PTR [eax],al
   0x5557291a:  add    BYTE PTR [eax],al
   0x5557291c:  add    BYTE PTR [eax],al
   0x5557291e:  add    BYTE PTR [eax],al
   0x55572920:  add    BYTE PTR [eax],al
   0x55572922:  add    BYTE PTR [eax],al
   0x55572924:  add    BYTE PTR [eax],al
   0x55572926:  add    BYTE PTR [eax],al
   0x55572928:  add    BYTE PTR [eax],al
   0x5557292a:  add    BYTE PTR [eax],al
   0x5557292c:  add    BYTE PTR [eax],al
   0x5557292e:  add    BYTE PTR [eax],al
   0x55572930:  add    BYTE PTR [eax],al
   0x55572932:  add    BYTE PTR [eax],al
   0x55572934:  add    BYTE PTR [eax],al
   0x55572936:  add    BYTE PTR [eax],al
   0x55572938:  add    BYTE PTR [eax],al
   0x5557293a:  add    BYTE PTR [eax],al
   0x5557293c:  add    BYTE PTR [eax],al
   0x5557293e:  add    BYTE PTR [eax],al
   0x55572940:  add    BYTE PTR [eax],al
   0x55572942:  add    BYTE PTR [eax],al
   0x55572944:  add    BYTE PTR [eax],al
   0x55572946:  add    BYTE PTR [eax],al
   0x55572948:  add    BYTE PTR [eax],al
   0x5557294a:  add    BYTE PTR [eax],al
   0x5557294c:  add    BYTE PTR [eax],al
   0x5557294e:  add    BYTE PTR [eax],al
   0x55572950:  add    BYTE PTR [eax],al
   0x55572952:  add    BYTE PTR [eax],al
   0x55572954:  add    BYTE PTR [eax],al
   0x55572956:  add    BYTE PTR [eax],al
   0x55572958:  add    BYTE PTR [eax],al
   0x5557295a:  add    BYTE PTR [eax],al
   0x5557295c:  add    BYTE PTR [eax],al
   0x5557295e:  add    BYTE PTR [eax],al
   0x55572960:  add    BYTE PTR [eax],al
   0x55572962:  add    BYTE PTR [eax],al
   0x55572964:  add    BYTE PTR [eax],al
   0x55572966:  add    BYTE PTR [eax],al
   0x55572968:  add    BYTE PTR [eax],al
   0x5557296a:  add    BYTE PTR [eax],al
   0x5557296c:  add    BYTE PTR [eax],al
   0x5557296e:  add    BYTE PTR [eax],al
   0x55572970:  add    BYTE PTR [eax],al
   0x55572972:  add    BYTE PTR [eax],al
   0x55572974:  add    BYTE PTR [eax],al
   0x55572976:  add    BYTE PTR [eax],al
   0x55572978:  add    BYTE PTR [eax],al
   0x5557297a:  add    BYTE PTR [eax],al
   0x5557297c:  add    BYTE PTR [eax],al
   0x5557297e:  add    BYTE PTR [eax],al
   0x55572980:  add    BYTE PTR [eax],al
   0x55572982:  add    BYTE PTR [eax],al
   0x55572984:  add    BYTE PTR [eax],al
   0x55572986:  add    BYTE PTR [eax],al
   0x55572988:  add    BYTE PTR [eax],al
   0x5557298a:  add    BYTE PTR [eax],al
   0x5557298c:  add    BYTE PTR [eax],al
   0x5557298e:  add    BYTE PTR [eax],al
   0x55572990:  add    BYTE PTR [eax],al
   0x55572992:  add    BYTE PTR [eax],al
   0x55572994:  add    BYTE PTR [eax],al
   0x55572996:  add    BYTE PTR [eax],al
   0x55572998:  add    BYTE PTR [eax],al
   0x5557299a:  add    BYTE PTR [eax],al
   0x5557299c:  add    BYTE PTR [eax],al
   0x5557299e:  add    BYTE PTR [eax],al
   0x555729a0:  add    BYTE PTR [eax],al
   0x555729a2:  add    BYTE PTR [eax],al
   0x555729a4:  add    BYTE PTR [eax],al
   0x555729a6:  add    BYTE PTR [eax],al
   0x555729a8:  add    BYTE PTR [eax],al
   0x555729aa:  add    BYTE PTR [eax],al
   0x555729ac:  add    BYTE PTR [eax],al
   0x555729ae:  add    BYTE PTR [eax],al
   0x555729b0:  add    BYTE PTR [eax],al
   0x555729b2:  add    BYTE PTR [eax],al
   0x555729b4:  add    BYTE PTR [eax],al
   0x555729b6:  add    BYTE PTR [eax],al
   0x555729b8:  add    BYTE PTR [eax],al
   0x555729ba:  add    BYTE PTR [eax],al
   0x555729bc:  add    BYTE PTR [eax],al
   0x555729be:  add    BYTE PTR [eax],al
   0x555729c0:  add    BYTE PTR [eax],al
   0x555729c2:  add    BYTE PTR [eax],al
   0x555729c4:  add    BYTE PTR [eax],al
   0x555729c6:  add    BYTE PTR [eax],al
   0x555729c8:  add    BYTE PTR [eax],al
   0x555729ca:  add    BYTE PTR [eax],al
   0x555729cc:  add    BYTE PTR [eax],al
   0x555729ce:  add    BYTE PTR [eax],al
   0x555729d0:  add    BYTE PTR [eax],al
   0x555729d2:  add    BYTE PTR [eax],al
   0x555729d4:  add    BYTE PTR [eax],al
   0x555729d6:  add    BYTE PTR [eax],al
   0x555729d8:  add    BYTE PTR [eax],al
   0x555729da:  add    BYTE PTR [eax],al
   0x555729dc:  add    BYTE PTR [eax],al
   0x555729de:  add    BYTE PTR [eax],al
   0x555729e0:  add    BYTE PTR [eax],al
   0x555729e2:  add    BYTE PTR [eax],al
   0x555729e4:  add    BYTE PTR [eax],al
   0x555729e6:  add    BYTE PTR [eax],al
   0x555729e8:  add    BYTE PTR [eax],al
   0x555729ea:  add    BYTE PTR [eax],al
   0x555729ec:  add    BYTE PTR [eax],al
   0x555729ee:  add    BYTE PTR [eax],al
   0x555729f0:  add    BYTE PTR [eax],al
   0x555729f2:  add    BYTE PTR [eax],al
   0x555729f4:  add    BYTE PTR [eax],al
   0x555729f6:  add    BYTE PTR [eax],al
   0x555729f8:  add    BYTE PTR [eax],al
   0x555729fa:  add    BYTE PTR [eax],al
   0x555729fc:  add    BYTE PTR [eax],al
   0x555729fe:  add    BYTE PTR [eax],al
   0x55572a00:  add    BYTE PTR [eax],al
   0x55572a02:  add    BYTE PTR [eax],al
   0x55572a04:  add    BYTE PTR [eax],al
   0x55572a06:  add    BYTE PTR [eax],al
   0x55572a08:  add    BYTE PTR [eax],al
   0x55572a0a:  add    BYTE PTR [eax],al
   0x55572a0c:  add    BYTE PTR [eax],al
   0x55572a0e:  add    BYTE PTR [eax],al
   0x55572a10:  add    BYTE PTR [eax],al
   0x55572a12:  add    BYTE PTR [eax],al
   0x55572a14:  add    BYTE PTR [eax],al
   0x55572a16:  add    BYTE PTR [eax],al
   0x55572a18:  add    BYTE PTR [eax],al
   0x55572a1a:  add    BYTE PTR [eax],al
   0x55572a1c:  add    BYTE PTR [eax],al
   0x55572a1e:  add    BYTE PTR [eax],al
   0x55572a20:  add    BYTE PTR [eax],al
   0x55572a22:  add    BYTE PTR [eax],al
   0x55572a24:  add    BYTE PTR [eax],al
   0x55572a26:  add    BYTE PTR [eax],al
   0x55572a28:  add    BYTE PTR [eax],al
   0x55572a2a:  add    BYTE PTR [eax],al
   0x55572a2c:  add    BYTE PTR [eax],al
   0x55572a2e:  add    BYTE PTR [eax],al
   0x55572a30:  add    BYTE PTR [eax],al
   0x55572a32:  add    BYTE PTR [eax],al
   0x55572a34:  add    BYTE PTR [eax],al
   0x55572a36:  add    BYTE PTR [eax],al
   0x55572a38:  add    BYTE PTR [eax],al
   0x55572a3a:  add    BYTE PTR [eax],al
   0x55572a3c:  add    BYTE PTR [eax],al
   0x55572a3e:  add    BYTE PTR [eax],al
   0x55572a40:  add    BYTE PTR [eax],al
   0x55572a42:  add    BYTE PTR [eax],al
   0x55572a44:  add    BYTE PTR [eax],al
   0x55572a46:  add    BYTE PTR [eax],al
   0x55572a48:  add    BYTE PTR [eax],al
   0x55572a4a:  add    BYTE PTR [eax],al
   0x55572a4c:  add    BYTE PTR [eax],al
   0x55572a4e:  add    BYTE PTR [eax],al
   0x55572a50:  add    BYTE PTR [eax],al
   0x55572a52:  add    BYTE PTR [eax],al
   0x55572a54:  add    BYTE PTR [eax],al
   0x55572a56:  add    BYTE PTR [eax],al
   0x55572a58:  add    BYTE PTR [eax],al
   0x55572a5a:  add    BYTE PTR [eax],al
   0x55572a5c:  add    BYTE PTR [eax],al
   0x55572a5e:  add    BYTE PTR [eax],al
   0x55572a60:  add    BYTE PTR [eax],al
   0x55572a62:  add    BYTE PTR [eax],al
   0x55572a64:  add    BYTE PTR [eax],al
   0x55572a66:  add    BYTE PTR [eax],al
   0x55572a68:  add    BYTE PTR [eax],al
   0x55572a6a:  add    BYTE PTR [eax],al
   0x55572a6c:  add    BYTE PTR [eax],al
   0x55572a6e:  add    BYTE PTR [eax],al
   0x55572a70:  add    BYTE PTR [eax],al
   0x55572a72:  add    BYTE PTR [eax],al
   0x55572a74:  add    BYTE PTR [eax],al
   0x55572a76:  add    BYTE PTR [eax],al
   0x55572a78:  add    BYTE PTR [eax],al
   0x55572a7a:  add    BYTE PTR [eax],al
   0x55572a7c:  add    BYTE PTR [eax],al
   0x55572a7e:  add    BYTE PTR [eax],al
   0x55572a80:  add    BYTE PTR [eax],al
   0x55572a82:  add    BYTE PTR [eax],al
   0x55572a84:  add    BYTE PTR [eax],al
   0x55572a86:  add    BYTE PTR [eax],al
   0x55572a88:  add    BYTE PTR [eax],al
   0x55572a8a:  add    BYTE PTR [eax],al
   0x55572a8c:  add    BYTE PTR [eax],al
   0x55572a8e:  add    BYTE PTR [eax],al
   0x55572a90:  add    BYTE PTR [eax],al
   0x55572a92:  add    BYTE PTR [eax],al
   0x55572a94:  add    BYTE PTR [eax],al
   0x55572a96:  add    BYTE PTR [eax],al
   0x55572a98:  add    BYTE PTR [eax],al
   0x55572a9a:  add    BYTE PTR [eax],al
   0x55572a9c:  add    BYTE PTR [eax],al
   0x55572a9e:  add    BYTE PTR [eax],al
   0x55572aa0:  add    BYTE PTR [eax],al
   0x55572aa2:  add    BYTE PTR [eax],al
   0x55572aa4:  add    BYTE PTR [eax],al
   0x55572aa6:  add    BYTE PTR [eax],al
   0x55572aa8:  add    BYTE PTR [eax],al
   0x55572aaa:  add    BYTE PTR [eax],al
   0x55572aac:  add    BYTE PTR [eax],al
   0x55572aae:  add    BYTE PTR [eax],al
   0x55572ab0:  add    BYTE PTR [eax],al
   0x55572ab2:  add    BYTE PTR [eax],al
   0x55572ab4:  add    BYTE PTR [eax],al
   0x55572ab6:  add    BYTE PTR [eax],al
   0x55572ab8:  add    BYTE PTR [eax],al
   0x55572aba:  add    BYTE PTR [eax],al
   0x55572abc:  add    BYTE PTR [eax],al
   0x55572abe:  add    BYTE PTR [eax],al
   0x55572ac0:  add    BYTE PTR [eax],al
   0x55572ac2:  add    BYTE PTR [eax],al
   0x55572ac4:  add    BYTE PTR [eax],al
   0x55572ac6:  add    BYTE PTR [eax],al
   0x55572ac8:  add    BYTE PTR [eax],al
   0x55572aca:  add    BYTE PTR [eax],al
   0x55572acc:  add    BYTE PTR [eax],al
   0x55572ace:  add    BYTE PTR [eax],al
   0x55572ad0:  add    BYTE PTR [eax],al
   0x55572ad2:  add    BYTE PTR [eax],al
   0x55572ad4:  add    BYTE PTR [eax],al
   0x55572ad6:  add    BYTE PTR [eax],al
   0x55572ad8:  add    BYTE PTR [eax],al
   0x55572ada:  add    BYTE PTR [eax],al
   0x55572adc:  add    BYTE PTR [eax],al
   0x55572ade:  add    BYTE PTR [eax],al
   0x55572ae0:  add    BYTE PTR [eax],al
   0x55572ae2:  add    BYTE PTR [eax],al
   0x55572ae4:  add    BYTE PTR [eax],al
   0x55572ae6:  add    BYTE PTR [eax],al
   0x55572ae8:  add    BYTE PTR [eax],al
   0x55572aea:  add    BYTE PTR [eax],al
   0x55572aec:  add    BYTE PTR [eax],al
   0x55572aee:  add    BYTE PTR [eax],al
   0x55572af0:  add    BYTE PTR [eax],al
   0x55572af2:  add    BYTE PTR [eax],al
   0x55572af4:  add    BYTE PTR [eax],al
   0x55572af6:  add    BYTE PTR [eax],al
   0x55572af8:  add    BYTE PTR [eax],al
   0x55572afa:  add    BYTE PTR [eax],al
   0x55572afc:  add    BYTE PTR [eax],al
   0x55572afe:  add    BYTE PTR [eax],al
   0x55572b00:  add    BYTE PTR [eax],al
   0x55572b02:  add    BYTE PTR [eax],al
   0x55572b04:  add    BYTE PTR [eax],al
   0x55572b06:  add    BYTE PTR [eax],al
   0x55572b08:  add    BYTE PTR [eax],al
   0x55572b0a:  add    BYTE PTR [eax],al
   0x55572b0c:  add    BYTE PTR [eax],al
   0x55572b0e:  add    BYTE PTR [eax],al
   0x55572b10:  add    BYTE PTR [eax],al
   0x55572b12:  add    BYTE PTR [eax],al
   0x55572b14:  add    BYTE PTR [eax],al
   0x55572b16:  add    BYTE PTR [eax],al
   0x55572b18:  add    BYTE PTR [eax],al
   0x55572b1a:  add    BYTE PTR [eax],al
   0x55572b1c:  add    BYTE PTR [eax],al
   0x55572b1e:  add    BYTE PTR [eax],al
   0x55572b20:  add    BYTE PTR [eax],al
   0x55572b22:  add    BYTE PTR [eax],al
   0x55572b24:  add    BYTE PTR [eax],al
   0x55572b26:  add    BYTE PTR [eax],al
   0x55572b28:  add    BYTE PTR [eax],al
   0x55572b2a:  add    BYTE PTR [eax],al
   0x55572b2c:  add    BYTE PTR [eax],al
   0x55572b2e:  add    BYTE PTR [eax],al
   0x55572b30:  add    BYTE PTR [eax],al
   0x55572b32:  add    BYTE PTR [eax],al
   0x55572b34:  add    BYTE PTR [eax],al
   0x55572b36:  add    BYTE PTR [eax],al
   0x55572b38:  add    BYTE PTR [eax],al
   0x55572b3a:  add    BYTE PTR [eax],al
   0x55572b3c:  add    BYTE PTR [eax],al
   0x55572b3e:  add    BYTE PTR [eax],al
   0x55572b40:  add    BYTE PTR [eax],al
   0x55572b42:  add    BYTE PTR [eax],al
   0x55572b44:  add    BYTE PTR [eax],al
   0x55572b46:  add    BYTE PTR [eax],al
   0x55572b48:  add    BYTE PTR [eax],al
   0x55572b4a:  add    BYTE PTR [eax],al
   0x55572b4c:  add    BYTE PTR [eax],al
   0x55572b4e:  add    BYTE PTR [eax],al
   0x55572b50:  add    BYTE PTR [eax],al
   0x55572b52:  add    BYTE PTR [eax],al
   0x55572b54:  add    BYTE PTR [eax],al
   0x55572b56:  add    BYTE PTR [eax],al
   0x55572b58:  add    BYTE PTR [eax],al
   0x55572b5a:  add    BYTE PTR [eax],al
   0x55572b5c:  add    BYTE PTR [eax],al
   0x55572b5e:  add    BYTE PTR [eax],al
   0x55572b60:  add    BYTE PTR [eax],al
   0x55572b62:  add    BYTE PTR [eax],al
   0x55572b64:  add    BYTE PTR [eax],al
   0x55572b66:  add    BYTE PTR [eax],al
   0x55572b68:  add    BYTE PTR [eax],al
   0x55572b6a:  add    BYTE PTR [eax],al
   0x55572b6c:  add    BYTE PTR [eax],al
   0x55572b6e:  add    BYTE PTR [eax],al
   0x55572b70:  add    BYTE PTR [eax],al
   0x55572b72:  add    BYTE PTR [eax],al
   0x55572b74:  add    BYTE PTR [eax],al
   0x55572b76:  add    BYTE PTR [eax],al
   0x55572b78:  add    BYTE PTR [eax],al
   0x55572b7a:  add    BYTE PTR [eax],al
   0x55572b7c:  add    BYTE PTR [eax],al
   0x55572b7e:  add    BYTE PTR [eax],al
   0x55572b80:  add    BYTE PTR [eax],al
   0x55572b82:  add    BYTE PTR [eax],al
   0x55572b84:  add    BYTE PTR [eax],al
   0x55572b86:  add    BYTE PTR [eax],al
   0x55572b88:  add    BYTE PTR [eax],al
   0x55572b8a:  add    BYTE PTR [eax],al
   0x55572b8c:  add    BYTE PTR [eax],al
   0x55572b8e:  add    BYTE PTR [eax],al
   0x55572b90:  add    BYTE PTR [eax],al
   0x55572b92:  add    BYTE PTR [eax],al
   0x55572b94:  add    BYTE PTR [eax],al
   0x55572b96:  add    BYTE PTR [eax],al
   0x55572b98:  add    BYTE PTR [eax],al
   0x55572b9a:  add    BYTE PTR [eax],al
   0x55572b9c:  add    BYTE PTR [eax],al
   0x55572b9e:  add    BYTE PTR [eax],al
   0x55572ba0:  add    BYTE PTR [eax],al
   0x55572ba2:  add    BYTE PTR [eax],al
   0x55572ba4:  add    BYTE PTR [eax],al
   0x55572ba6:  add    BYTE PTR [eax],al
   0x55572ba8:  add    BYTE PTR [eax],al
   0x55572baa:  add    BYTE PTR [eax],al
   0x55572bac:  add    BYTE PTR [eax],al
   0x55572bae:  add    BYTE PTR [eax],al
   0x55572bb0:  add    BYTE PTR [eax],al
   0x55572bb2:  add    BYTE PTR [eax],al
   0x55572bb4:  add    BYTE PTR [eax],al
   0x55572bb6:  add    BYTE PTR [eax],al
   0x55572bb8:  add    BYTE PTR [eax],al
   0x55572bba:  add    BYTE PTR [eax],al
   0x55572bbc:  add    BYTE PTR [eax],al
   0x55572bbe:  add    BYTE PTR [eax],al
   0x55572bc0:  add    BYTE PTR [eax],al
   0x55572bc2:  add    BYTE PTR [eax],al
   0x55572bc4:  add    BYTE PTR [eax],al
   0x55572bc6:  add    BYTE PTR [eax],al
   0x55572bc8:  add    BYTE PTR [eax],al
   0x55572bca:  add    BYTE PTR [eax],al
   0x55572bcc:  add    BYTE PTR [eax],al
   0x55572bce:  add    BYTE PTR [eax],al
   0x55572bd0:  add    BYTE PTR [eax],al
   0x55572bd2:  add    BYTE PTR [eax],al
   0x55572bd4:  add    BYTE PTR [eax],al
   0x55572bd6:  add    BYTE PTR [eax],al
   0x55572bd8:  add    BYTE PTR [eax],al
   0x55572bda:  add    BYTE PTR [eax],al
   0x55572bdc:  add    BYTE PTR [eax],al
   0x55572bde:  add    BYTE PTR [eax],al
   0x55572be0:  add    BYTE PTR [eax],al
   0x55572be2:  add    BYTE PTR [eax],al
   0x55572be4:  add    BYTE PTR [eax],al
   0x55572be6:  add    BYTE PTR [eax],al
   0x55572be8:  add    BYTE PTR [eax],al
   0x55572bea:  add    BYTE PTR [eax],al
   0x55572bec:  add    BYTE PTR [eax],al
   0x55572bee:  add    BYTE PTR [eax],al
   0x55572bf0:  add    BYTE PTR [eax],al
   0x55572bf2:  add    BYTE PTR [eax],al
   0x55572bf4:  add    BYTE PTR [eax],al
   0x55572bf6:  add    BYTE PTR [eax],al
   0x55572bf8:  add    BYTE PTR [eax],al
   0x55572bfa:  add    BYTE PTR [eax],al
   0x55572bfc:  add    BYTE PTR [eax],al
   0x55572bfe:  add    BYTE PTR [eax],al
   0x55572c00:  add    BYTE PTR [eax],al
   0x55572c02:  add    BYTE PTR [eax],al
   0x55572c04:  add    BYTE PTR [eax],al
   0x55572c06:  add    BYTE PTR [eax],al
   0x55572c08:  add    BYTE PTR [eax],al
   0x55572c0a:  add    BYTE PTR [eax],al
   0x55572c0c:  add    BYTE PTR [eax],al
   0x55572c0e:  add    BYTE PTR [eax],al
   0x55572c10:  add    BYTE PTR [eax],al
   0x55572c12:  add    BYTE PTR [eax],al
   0x55572c14:  add    BYTE PTR [eax],al
   0x55572c16:  add    BYTE PTR [eax],al
   0x55572c18:  add    BYTE PTR [eax],al
   0x55572c1a:  add    BYTE PTR [eax],al
   0x55572c1c:  add    BYTE PTR [eax],al
   0x55572c1e:  add    BYTE PTR [eax],al
   0x55572c20:  add    BYTE PTR [eax],al
   0x55572c22:  add    BYTE PTR [eax],al
   0x55572c24:  add    BYTE PTR [eax],al
   0x55572c26:  add    BYTE PTR [eax],al
   0x55572c28:  add    BYTE PTR [eax],al
   0x55572c2a:  add    BYTE PTR [eax],al
   0x55572c2c:  add    BYTE PTR [eax],al
   0x55572c2e:  add    BYTE PTR [eax],al
   0x55572c30:  add    BYTE PTR [eax],al
   0x55572c32:  add    BYTE PTR [eax],al
   0x55572c34:  add    BYTE PTR [eax],al
   0x55572c36:  add    BYTE PTR [eax],al
   0x55572c38:  add    BYTE PTR [eax],al
   0x55572c3a:  add    BYTE PTR [eax],al
   0x55572c3c:  add    BYTE PTR [eax],al
   0x55572c3e:  add    BYTE PTR [eax],al
   0x55572c40:  add    BYTE PTR [eax],al
   0x55572c42:  add    BYTE PTR [eax],al
   0x55572c44:  add    BYTE PTR [eax],al
   0x55572c46:  add    BYTE PTR [eax],al
   0x55572c48:  add    BYTE PTR [eax],al
   0x55572c4a:  add    BYTE PTR [eax],al
   0x55572c4c:  add    BYTE PTR [eax],al
   0x55572c4e:  add    BYTE PTR [eax],al
   0x55572c50:  add    BYTE PTR [eax],al
   0x55572c52:  add    BYTE PTR [eax],al
   0x55572c54:  add    BYTE PTR [eax],al
   0x55572c56:  add    BYTE PTR [eax],al
   0x55572c58:  add    BYTE PTR [eax],al
   0x55572c5a:  add    BYTE PTR [eax],al
   0x55572c5c:  add    BYTE PTR [eax],al
   0x55572c5e:  add    BYTE PTR [eax],al
   0x55572c60:  add    BYTE PTR [eax],al
   0x55572c62:  add    BYTE PTR [eax],al
   0x55572c64:  add    BYTE PTR [eax],al
   0x55572c66:  add    BYTE PTR [eax],al
   0x55572c68:  add    BYTE PTR [eax],al
   0x55572c6a:  add    BYTE PTR [eax],al
   0x55572c6c:  add    BYTE PTR [eax],al
   0x55572c6e:  add    BYTE PTR [eax],al
   0x55572c70:  add    BYTE PTR [eax],al
   0x55572c72:  add    BYTE PTR [eax],al
   0x55572c74:  add    BYTE PTR [eax],al
   0x55572c76:  add    BYTE PTR [eax],al
   0x55572c78:  add    BYTE PTR [eax],al
   0x55572c7a:  add    BYTE PTR [eax],al
   0x55572c7c:  add    BYTE PTR [eax],al
   0x55572c7e:  add    BYTE PTR [eax],al
   0x55572c80:  add    BYTE PTR [eax],al
   0x55572c82:  add    BYTE PTR [eax],al
   0x55572c84:  add    BYTE PTR [eax],al
   0x55572c86:  add    BYTE PTR [eax],al
   0x55572c88:  add    BYTE PTR [eax],al
   0x55572c8a:  add    BYTE PTR [eax],al
   0x55572c8c:  add    BYTE PTR [eax],al
   0x55572c8e:  add    BYTE PTR [eax],al
   0x55572c90:  add    BYTE PTR [eax],al
   0x55572c92:  add    BYTE PTR [eax],al
   0x55572c94:  add    BYTE PTR [eax],al
   0x55572c96:  add    BYTE PTR [eax],al
   0x55572c98:  add    BYTE PTR [eax],al
   0x55572c9a:  add    BYTE PTR [eax],al
   0x55572c9c:  add    BYTE PTR [eax],al
   0x55572c9e:  add    BYTE PTR [eax],al
   0x55572ca0:  add    BYTE PTR [eax],al
   0x55572ca2:  add    BYTE PTR [eax],al
   0x55572ca4:  add    BYTE PTR [eax],al
   0x55572ca6:  add    BYTE PTR [eax],al
   0x55572ca8:  add    BYTE PTR [eax],al
   0x55572caa:  add    BYTE PTR [eax],al
   0x55572cac:  add    BYTE PTR [eax],al
   0x55572cae:  add    BYTE PTR [eax],al
   0x55572cb0:  add    BYTE PTR [eax],al
   0x55572cb2:  add    BYTE PTR [eax],al
   0x55572cb4:  add    BYTE PTR [eax],al
   0x55572cb6:  add    BYTE PTR [eax],al
   0x55572cb8:  add    BYTE PTR [eax],al
   0x55572cba:  add    BYTE PTR [eax],al
   0x55572cbc:  add    BYTE PTR [eax],al
   0x55572cbe:  add    BYTE PTR [eax],al
   0x55572cc0:  add    BYTE PTR [eax],al
   0x55572cc2:  add    BYTE PTR [eax],al
   0x55572cc4:  add    BYTE PTR [eax],al
   0x55572cc6:  add    BYTE PTR [eax],al
   0x55572cc8:  add    BYTE PTR [eax],al
   0x55572cca:  add    BYTE PTR [eax],al
   0x55572ccc:  add    BYTE PTR [eax],al
   0x55572cce:  add    BYTE PTR [eax],al
   0x55572cd0:  add    BYTE PTR [eax],al
   0x55572cd2:  add    BYTE PTR [eax],al
   0x55572cd4:  add    BYTE PTR [eax],al
   0x55572cd6:  add    BYTE PTR [eax],al
   0x55572cd8:  add    BYTE PTR [eax],al
   0x55572cda:  add    BYTE PTR [eax],al
   0x55572cdc:  add    BYTE PTR [eax],al
   0x55572cde:  add    BYTE PTR [eax],al
   0x55572ce0:  add    BYTE PTR [eax],al
   0x55572ce2:  add    BYTE PTR [eax],al
   0x55572ce4:  add    BYTE PTR [eax],al
   0x55572ce6:  add    BYTE PTR [eax],al
   0x55572ce8:  add    BYTE PTR [eax],al
   0x55572cea:  add    BYTE PTR [eax],al
   0x55572cec:  add    BYTE PTR [eax],al
   0x55572cee:  add    BYTE PTR [eax],al
   0x55572cf0:  add    BYTE PTR [eax],al
   0x55572cf2:  add    BYTE PTR [eax],al
   0x55572cf4:  add    BYTE PTR [eax],al
   0x55572cf6:  add    BYTE PTR [eax],al
   0x55572cf8:  add    BYTE PTR [eax],al
   0x55572cfa:  add    BYTE PTR [eax],al
   0x55572cfc:  add    BYTE PTR [eax],al
   0x55572cfe:  add    BYTE PTR [eax],al
   0x55572d00:  add    BYTE PTR [eax],al
   0x55572d02:  add    BYTE PTR [eax],al
   0x55572d04:  add    BYTE PTR [eax],al
   0x55572d06:  add    BYTE PTR [eax],al
   0x55572d08:  add    BYTE PTR [eax],al
   0x55572d0a:  add    BYTE PTR [eax],al
   0x55572d0c:  add    BYTE PTR [eax],al
   0x55572d0e:  add    BYTE PTR [eax],al
   0x55572d10:  add    BYTE PTR [eax],al
   0x55572d12:  add    BYTE PTR [eax],al
   0x55572d14:  add    BYTE PTR [eax],al
   0x55572d16:  add    BYTE PTR [eax],al
   0x55572d18:  add    BYTE PTR [eax],al
   0x55572d1a:  add    BYTE PTR [eax],al
   0x55572d1c:  add    BYTE PTR [eax],al
   0x55572d1e:  add    BYTE PTR [eax],al
   0x55572d20:  add    BYTE PTR [eax],al
   0x55572d22:  add    BYTE PTR [eax],al
   0x55572d24:  add    BYTE PTR [eax],al
   0x55572d26:  add    BYTE PTR [eax],al
   0x55572d28:  add    BYTE PTR [eax],al
   0x55572d2a:  add    BYTE PTR [eax],al
   0x55572d2c:  add    BYTE PTR [eax],al
   0x55572d2e:  add    BYTE PTR [eax],al
   0x55572d30:  add    BYTE PTR [eax],al
   0x55572d32:  add    BYTE PTR [eax],al
   0x55572d34:  add    BYTE PTR [eax],al
   0x55572d36:  add    BYTE PTR [eax],al
   0x55572d38:  add    BYTE PTR [eax],al
   0x55572d3a:  add    BYTE PTR [eax],al
   0x55572d3c:  add    BYTE PTR [eax],al
   0x55572d3e:  add    BYTE PTR [eax],al
   0x55572d40:  add    BYTE PTR [eax],al
   0x55572d42:  add    BYTE PTR [eax],al
   0x55572d44:  add    BYTE PTR [eax],al
   0x55572d46:  add    BYTE PTR [eax],al
   0x55572d48:  add    BYTE PTR [eax],al
   0x55572d4a:  add    BYTE PTR [eax],al
   0x55572d4c:  add    BYTE PTR [eax],al
   0x55572d4e:  add    BYTE PTR [eax],al
   0x55572d50:  add    BYTE PTR [eax],al
   0x55572d52:  add    BYTE PTR [eax],al
   0x55572d54:  add    BYTE PTR [eax],al
   0x55572d56:  add    BYTE PTR [eax],al
   0x55572d58:  add    BYTE PTR [eax],al
   0x55572d5a:  add    BYTE PTR [eax],al
   0x55572d5c:  add    BYTE PTR [eax],al
   0x55572d5e:  add    BYTE PTR [eax],al
   0x55572d60:  add    BYTE PTR [eax],al
   0x55572d62:  add    BYTE PTR [eax],al
   0x55572d64:  add    BYTE PTR [eax],al
   0x55572d66:  add    BYTE PTR [eax],al
   0x55572d68:  add    BYTE PTR [eax],al
   0x55572d6a:  add    BYTE PTR [eax],al
   0x55572d6c:  add    BYTE PTR [eax],al
   0x55572d6e:  add    BYTE PTR [eax],al
   0x55572d70:  add    BYTE PTR [eax],al
   0x55572d72:  add    BYTE PTR [eax],al
   0x55572d74:  add    BYTE PTR [eax],al
   0x55572d76:  add    BYTE PTR [eax],al
   0x55572d78:  add    BYTE PTR [eax],al
   0x55572d7a:  add    BYTE PTR [eax],al
   0x55572d7c:  add    BYTE PTR [eax],al
   0x55572d7e:  add    BYTE PTR [eax],al
   0x55572d80:  add    BYTE PTR [eax],al
   0x55572d82:  add    BYTE PTR [eax],al
   0x55572d84:  add    BYTE PTR [eax],al
   0x55572d86:  add    BYTE PTR [eax],al
   0x55572d88:  add    BYTE PTR [eax],al
   0x55572d8a:  add    BYTE PTR [eax],al
   0x55572d8c:  add    BYTE PTR [eax],al
   0x55572d8e:  add    BYTE PTR [eax],al
   0x55572d90:  add    BYTE PTR [eax],al
   0x55572d92:  add    BYTE PTR [eax],al
   0x55572d94:  add    BYTE PTR [eax],al
   0x55572d96:  add    BYTE PTR [eax],al
   0x55572d98:  add    BYTE PTR [eax],al
   0x55572d9a:  add    BYTE PTR [eax],al
   0x55572d9c:  add    BYTE PTR [eax],al
   0x55572d9e:  add    BYTE PTR [eax],al
   0x55572da0:  add    BYTE PTR [eax],al
   0x55572da2:  add    BYTE PTR [eax],al
   0x55572da4:  add    BYTE PTR [eax],al
   0x55572da6:  add    BYTE PTR [eax],al
   0x55572da8:  add    BYTE PTR [eax],al
   0x55572daa:  add    BYTE PTR [eax],al
   0x55572dac:  add    BYTE PTR [eax],al
   0x55572dae:  add    BYTE PTR [eax],al
   0x55572db0:  add    BYTE PTR [eax],al
   0x55572db2:  add    BYTE PTR [eax],al
   0x55572db4:  add    BYTE PTR [eax],al
   0x55572db6:  add    BYTE PTR [eax],al
   0x55572db8:  add    BYTE PTR [eax],al
   0x55572dba:  add    BYTE PTR [eax],al
   0x55572dbc:  add    BYTE PTR [eax],al
   0x55572dbe:  add    BYTE PTR [eax],al
   0x55572dc0:  add    BYTE PTR [eax],al
   0x55572dc2:  add    BYTE PTR [eax],al
   0x55572dc4:  add    BYTE PTR [eax],al
   0x55572dc6:  add    BYTE PTR [eax],al
   0x55572dc8:  add    BYTE PTR [eax],al
   0x55572dca:  add    BYTE PTR [eax],al
   0x55572dcc:  add    BYTE PTR [eax],al
   0x55572dce:  add    BYTE PTR [eax],al
   0x55572dd0:  add    BYTE PTR [eax],al
   0x55572dd2:  add    BYTE PTR [eax],al
   0x55572dd4:  add    BYTE PTR [eax],al
   0x55572dd6:  add    BYTE PTR [eax],al
   0x55572dd8:  add    BYTE PTR [eax],al
   0x55572dda:  add    BYTE PTR [eax],al
   0x55572ddc:  add    BYTE PTR [eax],al
   0x55572dde:  add    BYTE PTR [eax],al
   0x55572de0:  add    BYTE PTR [eax],al
   0x55572de2:  add    BYTE PTR [eax],al
   0x55572de4:  add    BYTE PTR [eax],al
   0x55572de6:  add    BYTE PTR [eax],al
   0x55572de8:  add    BYTE PTR [eax],al
   0x55572dea:  add    BYTE PTR [eax],al
   0x55572dec:  add    BYTE PTR [eax],al
   0x55572dee:  add    BYTE PTR [eax],al
   0x55572df0:  add    BYTE PTR [eax],al
   0x55572df2:  add    BYTE PTR [eax],al
   0x55572df4:  add    BYTE PTR [eax],al
   0x55572df6:  add    BYTE PTR [eax],al
   0x55572df8:  add    BYTE PTR [eax],al
   0x55572dfa:  add    BYTE PTR [eax],al
   0x55572dfc:  add    BYTE PTR [eax],al
   0x55572dfe:  add    BYTE PTR [eax],al
   0x55572e00:  add    BYTE PTR [eax],al
   0x55572e02:  add    BYTE PTR [eax],al
   0x55572e04:  add    BYTE PTR [eax],al
   0x55572e06:  add    BYTE PTR [eax],al
   0x55572e08:  add    BYTE PTR [eax],al
   0x55572e0a:  add    BYTE PTR [eax],al
   0x55572e0c:  add    BYTE PTR [eax],al
   0x55572e0e:  add    BYTE PTR [eax],al
   0x55572e10:  add    BYTE PTR [eax],al
   0x55572e12:  add    BYTE PTR [eax],al
   0x55572e14:  add    BYTE PTR [eax],al
   0x55572e16:  add    BYTE PTR [eax],al
   0x55572e18:  add    BYTE PTR [eax],al
   0x55572e1a:  add    BYTE PTR [eax],al
   0x55572e1c:  add    BYTE PTR [eax],al
   0x55572e1e:  add    BYTE PTR [eax],al
   0x55572e20:  add    BYTE PTR [eax],al
   0x55572e22:  add    BYTE PTR [eax],al
   0x55572e24:  add    BYTE PTR [eax],al
   0x55572e26:  add    BYTE PTR [eax],al
   0x55572e28:  add    BYTE PTR [eax],al
   0x55572e2a:  add    BYTE PTR [eax],al
   0x55572e2c:  add    BYTE PTR [eax],al
   0x55572e2e:  add    BYTE PTR [eax],al
   0x55572e30:  add    BYTE PTR [eax],al
   0x55572e32:  add    BYTE PTR [eax],al
   0x55572e34:  add    BYTE PTR [eax],al
   0x55572e36:  add    BYTE PTR [eax],al
   0x55572e38:  add    BYTE PTR [eax],al
   0x55572e3a:  add    BYTE PTR [eax],al
   0x55572e3c:  add    BYTE PTR [eax],al
   0x55572e3e:  add    BYTE PTR [eax],al
   0x55572e40:  add    BYTE PTR [eax],al
   0x55572e42:  add    BYTE PTR [eax],al
   0x55572e44:  add    BYTE PTR [eax],al
   0x55572e46:  add    BYTE PTR [eax],al
   0x55572e48:  add    BYTE PTR [eax],al
   0x55572e4a:  add    BYTE PTR [eax],al
   0x55572e4c:  add    BYTE PTR [eax],al
   0x55572e4e:  add    BYTE PTR [eax],al
   0x55572e50:  add    BYTE PTR [eax],al
   0x55572e52:  add    BYTE PTR [eax],al
   0x55572e54:  add    BYTE PTR [eax],al
   0x55572e56:  add    BYTE PTR [eax],al
   0x55572e58:  add    BYTE PTR [eax],al
   0x55572e5a:  add    BYTE PTR [eax],al
   0x55572e5c:  add    BYTE PTR [eax],al
   0x55572e5e:  add    BYTE PTR [eax],al
   0x55572e60:  add    BYTE PTR [eax],al
   0x55572e62:  add    BYTE PTR [eax],al
   0x55572e64:  add    BYTE PTR [eax],al
   0x55572e66:  add    BYTE PTR [eax],al
   0x55572e68:  add    BYTE PTR [eax],al
   0x55572e6a:  add    BYTE PTR [eax],al
   0x55572e6c:  add    BYTE PTR [eax],al
   0x55572e6e:  add    BYTE PTR [eax],al
   0x55572e70:  add    BYTE PTR [eax],al
   0x55572e72:  add    BYTE PTR [eax],al
   0x55572e74:  add    BYTE PTR [eax],al
   0x55572e76:  add    BYTE PTR [eax],al
   0x55572e78:  add    BYTE PTR [eax],al
   0x55572e7a:  add    BYTE PTR [eax],al
   0x55572e7c:  add    BYTE PTR [eax],al
   0x55572e7e:  add    BYTE PTR [eax],al
   0x55572e80:  add    BYTE PTR [eax],al
   0x55572e82:  add    BYTE PTR [eax],al
   0x55572e84:  add    BYTE PTR [eax],al
   0x55572e86:  add    BYTE PTR [eax],al
   0x55572e88:  add    BYTE PTR [eax],al
   0x55572e8a:  add    BYTE PTR [eax],al
   0x55572e8c:  add    BYTE PTR [eax],al
   0x55572e8e:  add    BYTE PTR [eax],al
   0x55572e90:  add    BYTE PTR [eax],al
   0x55572e92:  add    BYTE PTR [eax],al
   0x55572e94:  add    BYTE PTR [eax],al
   0x55572e96:  add    BYTE PTR [eax],al
   0x55572e98:  add    BYTE PTR [eax],al
   0x55572e9a:  add    BYTE PTR [eax],al
   0x55572e9c:  add    BYTE PTR [eax],al
   0x55572e9e:  add    BYTE PTR [eax],al
   0x55572ea0:  add    BYTE PTR [eax],al
   0x55572ea2:  add    BYTE PTR [eax],al
   0x55572ea4:  add    BYTE PTR [eax],al
   0x55572ea6:  add    BYTE PTR [eax],al
   0x55572ea8:  add    BYTE PTR [eax],al
   0x55572eaa:  add    BYTE PTR [eax],al
   0x55572eac:  add    BYTE PTR [eax],al
   0x55572eae:  add    BYTE PTR [eax],al
   0x55572eb0:  add    BYTE PTR [eax],al
   0x55572eb2:  add    BYTE PTR [eax],al
   0x55572eb4:  add    BYTE PTR [eax],al
   0x55572eb6:  add    BYTE PTR [eax],al
   0x55572eb8:  add    BYTE PTR [eax],al
   0x55572eba:  add    BYTE PTR [eax],al
   0x55572ebc:  add    BYTE PTR [eax],al
   0x55572ebe:  add    BYTE PTR [eax],al
   0x55572ec0:  add    BYTE PTR [eax],al
   0x55572ec2:  add    BYTE PTR [eax],al
   0x55572ec4:  add    BYTE PTR [eax],al
   0x55572ec6:  add    BYTE PTR [eax],al
   0x55572ec8:  add    BYTE PTR [eax],al
   0x55572eca:  add    BYTE PTR [eax],al
   0x55572ecc:  add    BYTE PTR [eax],al
   0x55572ece:  add    BYTE PTR [eax],al
   0x55572ed0:  add    BYTE PTR [eax],al
   0x55572ed2:  add    BYTE PTR [eax],al
   0x55572ed4:  add    BYTE PTR [eax],al
   0x55572ed6:  add    BYTE PTR [eax],al
   0x55572ed8:  add    BYTE PTR [eax],al
   0x55572eda:  add    BYTE PTR [eax],al
   0x55572edc:  add    BYTE PTR [eax],al
   0x55572ede:  add    BYTE PTR [eax],al
   0x55572ee0:  add    BYTE PTR [eax],al
   0x55572ee2:  add    BYTE PTR [eax],al
   0x55572ee4:  add    BYTE PTR [eax],al
   0x55572ee6:  add    BYTE PTR [eax],al
   0x55572ee8:  add    BYTE PTR [eax],al
   0x55572eea:  add    BYTE PTR [eax],al
   0x55572eec:  add    BYTE PTR [eax],al
   0x55572eee:  add    BYTE PTR [eax],al
   0x55572ef0:  add    BYTE PTR [eax],al
   0x55572ef2:  add    BYTE PTR [eax],al
   0x55572ef4:  add    BYTE PTR [eax],al
   0x55572ef6:  add    BYTE PTR [eax],al
   0x55572ef8:  add    BYTE PTR [eax],al
   0x55572efa:  add    BYTE PTR [eax],al
   0x55572efc:  add    BYTE PTR [eax],al
   0x55572efe:  add    BYTE PTR [eax],al
   0x55572f00:  add    BYTE PTR [eax],al
   0x55572f02:  add    BYTE PTR [eax],al
   0x55572f04:  add    BYTE PTR [eax],al
   0x55572f06:  add    BYTE PTR [eax],al
   0x55572f08:  add    BYTE PTR [eax],al
   0x55572f0a:  add    BYTE PTR [eax],al
   0x55572f0c:  add    BYTE PTR [eax],al
   0x55572f0e:  add    BYTE PTR [eax],al
   0x55572f10:  add    BYTE PTR [eax],al
   0x55572f12:  add    BYTE PTR [eax],al
   0x55572f14:  add    BYTE PTR [eax],al
   0x55572f16:  add    BYTE PTR [eax],al
   0x55572f18:  add    BYTE PTR [eax],al
   0x55572f1a:  add    BYTE PTR [eax],al
   0x55572f1c:  add    BYTE PTR [eax],al
   0x55572f1e:  add    BYTE PTR [eax],al
   0x55572f20:  add    BYTE PTR [eax],al
   0x55572f22:  add    BYTE PTR [eax],al
   0x55572f24:  add    BYTE PTR [eax],al
   0x55572f26:  add    BYTE PTR [eax],al
   0x55572f28:  add    BYTE PTR [eax],al
   0x55572f2a:  add    BYTE PTR [eax],al
   0x55572f2c:  add    BYTE PTR [eax],al
   0x55572f2e:  add    BYTE PTR [eax],al
   0x55572f30:  add    BYTE PTR [eax],al
   0x55572f32:  add    BYTE PTR [eax],al
   0x55572f34:  add    BYTE PTR [eax],al
   0x55572f36:  add    BYTE PTR [eax],al
   0x55572f38:  add    BYTE PTR [eax],al
   0x55572f3a:  add    BYTE PTR [eax],al
   0x55572f3c:  add    BYTE PTR [eax],al
   0x55572f3e:  add    BYTE PTR [eax],al
   0x55572f40:  add    BYTE PTR [eax],al
   0x55572f42:  add    BYTE PTR [eax],al
   0x55572f44:  add    BYTE PTR [eax],al
   0x55572f46:  add    BYTE PTR [eax],al
   0x55572f48:  add    BYTE PTR [eax],al
   0x55572f4a:  add    BYTE PTR [eax],al
   0x55572f4c:  add    BYTE PTR [eax],al
   0x55572f4e:  add    BYTE PTR [eax],al
   0x55572f50:  add    BYTE PTR [eax],al
   0x55572f52:  add    BYTE PTR [eax],al
   0x55572f54:  add    BYTE PTR [eax],al
   0x55572f56:  add    BYTE PTR [eax],al
   0x55572f58:  add    BYTE PTR [eax],al
   0x55572f5a:  add    BYTE PTR [eax],al
   0x55572f5c:  add    BYTE PTR [eax],al
   0x55572f5e:  add    BYTE PTR [eax],al
   0x55572f60:  add    BYTE PTR [eax],al
   0x55572f62:  add    BYTE PTR [eax],al
   0x55572f64:  add    BYTE PTR [eax],al
   0x55572f66:  add    BYTE PTR [eax],al
   0x55572f68:  add    BYTE PTR [eax],al
   0x55572f6a:  add    BYTE PTR [eax],al
   0x55572f6c:  add    BYTE PTR [eax],al
   0x55572f6e:  add    BYTE PTR [eax],al
   0x55572f70:  add    BYTE PTR [eax],al
   0x55572f72:  add    BYTE PTR [eax],al
   0x55572f74:  add    BYTE PTR [eax],al
   0x55572f76:  add    BYTE PTR [eax],al
   0x55572f78:  add    BYTE PTR [eax],al
   0x55572f7a:  add    BYTE PTR [eax],al
   0x55572f7c:  add    BYTE PTR [eax],al
   0x55572f7e:  add    BYTE PTR [eax],al
   0x55572f80:  add    BYTE PTR [eax],al
   0x55572f82:  add    BYTE PTR [eax],al
   0x55572f84:  add    BYTE PTR [eax],al
   0x55572f86:  add    BYTE PTR [eax],al
   0x55572f88:  add    BYTE PTR [eax],al
   0x55572f8a:  add    BYTE PTR [eax],al
   0x55572f8c:  add    BYTE PTR [eax],al
   0x55572f8e:  add    BYTE PTR [eax],al
   0x55572f90:  add    BYTE PTR [eax],al
   0x55572f92:  add    BYTE PTR [eax],al
   0x55572f94:  add    BYTE PTR [eax],al
   0x55572f96:  add    BYTE PTR [eax],al
   0x55572f98:  add    BYTE PTR [eax],al
   0x55572f9a:  add    BYTE PTR [eax],al
   0x55572f9c:  add    BYTE PTR [eax],al
   0x55572f9e:  add    BYTE PTR [eax],al
   0x55572fa0:  add    BYTE PTR [eax],al
   0x55572fa2:  add    BYTE PTR [eax],al
   0x55572fa4:  add    BYTE PTR [eax],al
   0x55572fa6:  add    BYTE PTR [eax],al
   0x55572fa8:  add    BYTE PTR [eax],al
   0x55572faa:  add    BYTE PTR [eax],al
   0x55572fac:  add    BYTE PTR [eax],al
   0x55572fae:  add    BYTE PTR [eax],al
   0x55572fb0:  add    BYTE PTR [eax],al
   0x55572fb2:  add    BYTE PTR [eax],al
   0x55572fb4:  add    BYTE PTR [eax],al
   0x55572fb6:  add    BYTE PTR [eax],al
   0x55572fb8:  add    BYTE PTR [eax],al
   0x55572fba:  add    BYTE PTR [eax],al
   0x55572fbc:  add    BYTE PTR [eax],al
   0x55572fbe:  add    BYTE PTR [eax],al
   0x55572fc0:  add    BYTE PTR [eax],al
   0x55572fc2:  add    BYTE PTR [eax],al
   0x55572fc4:  add    BYTE PTR [eax],al
   0x55572fc6:  add    BYTE PTR [eax],al
   0x55572fc8:  add    BYTE PTR [eax],al
   0x55572fca:  add    BYTE PTR [eax],al
   0x55572fcc:  add    BYTE PTR [eax],al
   0x55572fce:  add    BYTE PTR [eax],al
   0x55572fd0:  add    BYTE PTR [eax],al
   0x55572fd2:  add    BYTE PTR [eax],al
   0x55572fd4:  add    BYTE PTR [eax],al
   0x55572fd6:  add    BYTE PTR [eax],al
   0x55572fd8:  add    BYTE PTR [eax],al
   0x55572fda:  add    BYTE PTR [eax],al
   0x55572fdc:  add    BYTE PTR [eax],al
   0x55572fde:  add    BYTE PTR [eax],al
   0x55572fe0:  add    BYTE PTR [eax],al
   0x55572fe2:  add    BYTE PTR [eax],al
   0x55572fe4:  add    BYTE PTR [eax],al
   0x55572fe6:  add    BYTE PTR [eax],al
   0x55572fe8:  add    BYTE PTR [eax],al
   0x55572fea:  add    BYTE PTR [eax],al
   0x55572fec:  add    BYTE PTR [eax],al
   0x55572fee:  add    BYTE PTR [eax],al
   0x55572ff0:  add    BYTE PTR [eax],al
   0x55572ff2:  add    BYTE PTR [eax],al
   0x55572ff4:  add    BYTE PTR [eax],al
   0x55572ff6:  add    BYTE PTR [eax],al
   0x55572ff8:  add    BYTE PTR [eax],al
   0x55572ffa:  add    BYTE PTR [eax],al
   0x55572ffc:  add    BYTE PTR [eax],al
   0x55572ffe:  add    BYTE PTR [eax],al
   0x55573000:  Cannot access memory at address 0x55573000
