gdb-peda$ x/4000i 0xf77e9000
   0xf77e9000:  jg     0xf77e9047
   0xf77e9002:  dec    esp
   0xf77e9003:  inc    esi
   0xf77e9004:  add    DWORD PTR [ecx],eax
   0xf77e9006:  add    DWORD PTR [eax],eax
   0xf77e9008:  add    BYTE PTR [eax],al
   0xf77e900a:  add    BYTE PTR [eax],al
   0xf77e900c:  add    BYTE PTR [eax],al
   0xf77e900e:  add    BYTE PTR [eax],al
   0xf77e9010:  add    eax,DWORD PTR [eax]
   0xf77e9012:  add    eax,DWORD PTR [eax]
   0xf77e9014:  add    DWORD PTR [eax],eax
   0xf77e9016:  add    BYTE PTR [eax],al
   0xf77e9018:  nop
   0xf77e9019:  or     al,0x0
   0xf77e901b:  add    BYTE PTR [eax+eax*1],dh
   0xf77e901e:  add    BYTE PTR [eax],al
   0xf77e9020:  add    BYTE PTR [esi],cl
   0xf77e9022:  add    BYTE PTR [eax],al
   0xf77e9024:  add    BYTE PTR [eax],al
   0xf77e9026:  add    BYTE PTR [eax],al
   0xf77e9028:  xor    al,0x0
   0xf77e902a:  and    BYTE PTR [eax],al
   0xf77e902c:  add    al,0x0
   0xf77e902e:  sub    BYTE PTR [eax],al
   0xf77e9030:  adc    DWORD PTR [eax],eax
   0xf77e9032:  adc    BYTE PTR [eax],al
   0xf77e9034:  add    DWORD PTR [eax],eax
   0xf77e9036:  add    BYTE PTR [eax],al
   0xf77e9038:  add    BYTE PTR [eax],al
   0xf77e903a:  add    BYTE PTR [eax],al
   0xf77e903c:  add    BYTE PTR [eax],al
   0xf77e903e:  add    BYTE PTR [eax],al
   0xf77e9040:  add    BYTE PTR [eax],al
   0xf77e9042:  add    BYTE PTR [eax],al
   0xf77e9044:  sub    cl,BYTE PTR ds:0xd2a0000
   0xf77e904a:  add    BYTE PTR [eax],al
   0xf77e904c:  add    eax,0x0
   0xf77e9051:  adc    BYTE PTR [eax],al
   0xf77e9053:  add    BYTE PTR [edx],al
   0xf77e9055:  add    BYTE PTR [eax],al
   0xf77e9057:  add    BYTE PTR [edx+eax*1+0x2bc0000],bh
   0xf77e905e:  add    BYTE PTR [eax],al
   0xf77e9060:  mov    esp,0x88000002
   0xf77e9065:  add    BYTE PTR [eax],al
   0xf77e9067:  add    BYTE PTR [eax+0x4000000],cl
   0xf77e906d:  add    BYTE PTR [eax],al
   0xf77e906f:  add    BYTE PTR [eax+eax*1],al
   0xf77e9072:  add    BYTE PTR [eax],al
   0xf77e9074:  add    al,0x0
   0xf77e9076:  add    BYTE PTR [eax],al
   0xf77e9078:  pop    eax
   0xf77e9079:  add    eax,0x5580000
   0xf77e907e:  add    BYTE PTR [eax],al
   0xf77e9080:  pop    eax
   0xf77e9081:  add    eax,0x600000
   0xf77e9086:  add    BYTE PTR [eax],al
   0xf77e9088:  pusha
   0xf77e9089:  add    BYTE PTR [eax],al
   0xf77e908b:  add    BYTE PTR [eax+eax*1],al
   0xf77e908e:  add    BYTE PTR [eax],al
   0xf77e9090:  add    al,0x0
   0xf77e9092:  add    BYTE PTR [eax],al
   0xf77e9094:  push   eax
   0xf77e9095:  in     eax,0x74
   0xf77e9097:  fs mov eax,0xb8000005
   0xf77e909d:  add    eax,0x5b80000
   0xf77e90a2:  add    BYTE PTR [eax],al
   0xf77e90a4:  and    al,0x0
   0xf77e90a6:  add    BYTE PTR [eax],al
   0xf77e90a8:  and    al,0x0
   0xf77e90aa:  add    BYTE PTR [eax],al
   0xf77e90ac:  add    al,0x0
   0xf77e90ae:  add    BYTE PTR [eax],al
   0xf77e90b0:  add    al,0x0
   0xf77e90b2:  add    BYTE PTR [eax],al
   0xf77e90b4:  add    eax,DWORD PTR [eax]
   0xf77e90b6:  add    BYTE PTR [eax],al
   0xf77e90b8:  or     DWORD PTR [eax],eax
   0xf77e90ba:  add    BYTE PTR [eax],al
   0xf77e90bc:  add    al,0x0
   0xf77e90be:  add    BYTE PTR [eax],al
   0xf77e90c0:  add    BYTE PTR [eax],al
   0xf77e90c2:  add    BYTE PTR [eax],al
   0xf77e90c4:  pop    es
   0xf77e90c5:  add    BYTE PTR [eax],al
   0xf77e90c7:  add    BYTE PTR [eax],al
   0xf77e90c9:  add    BYTE PTR [eax],al
   0xf77e90cb:  add    BYTE PTR [eax],al
   0xf77e90cd:  add    BYTE PTR [eax],al
   0xf77e90cf:  add    BYTE PTR [eax],cl
   0xf77e90d1:  add    BYTE PTR [eax],al
   0xf77e90d3:  add    BYTE PTR [edx],al
   0xf77e90d5:  add    BYTE PTR [eax],al
   0xf77e90d7:  add    BYTE PTR [ebx],al
   0xf77e90d9:  add    BYTE PTR [eax],al
   0xf77e90db:  add    BYTE PTR [ecx],al
   0xf77e90dd:  add    BYTE PTR [eax],al
   0xf77e90df:  add    BYTE PTR ds:0x6000000,al
   0xf77e90e5:  add    BYTE PTR [eax],al
   0xf77e90e7:  add    BYTE PTR [eax],al
   0xf77e90e9:  add    BYTE PTR [eax],al
   0xf77e90eb:  add    BYTE PTR [ebx],al
   0xf77e90ed:  add    BYTE PTR [eax],al
   0xf77e90ef:  add    BYTE PTR [ecx],al
   0xf77e90f1:  add    BYTE PTR [eax],al
   0xf77e90f3:  add    BYTE PTR [edx],al
   0xf77e90f5:  add    BYTE PTR [eax],al
   0xf77e90f7:  add    BYTE PTR [esi],al
   0xf77e90f9:  add    BYTE PTR [eax],al
   0xf77e90fb:  add    BYTE PTR [ecx],al
   0xf77e90fd:  aaa
   0xf77e90fe:  add    BYTE PTR [ecx],al
   0xf77e9100:  inc    eax
   0xf77e9101:  or     BYTE PTR [eax+eax*4],bl
   0xf77e9104:  add    DWORD PTR [eax],eax
   0xf77e9106:  add    BYTE PTR [eax],al
   0xf77e9108:  add    eax,0x8000000
   0xf77e910d:  add    BYTE PTR [eax],al
   0xf77e910f:  add    BYTE PTR [esp+eax*4-0x35ff588a],dh
   0xf77e9116:  sbb    esi,DWORD PTR [eax-0x6d7f331a]
   0xf77e911c:  or     eax,0x88821e8e
   0xf77e9121:  sub    al,dh
   0xf77e9123:  es jmp 0x43a3:0x1991788f
   0xf77e912b:  outs   dx,BYTE PTR ds:[esi]
   0xf77e912c:  mov    ebp,DWORD PTR [edx]
   0xf77e912e:  (bad)
   0xf77e912f:  add    BYTE PTR es:[eax],al
   0xf77e9132:  add    BYTE PTR [eax],al
   0xf77e9134:  add    BYTE PTR [eax],al
   0xf77e9136:  add    BYTE PTR [eax],al
   0xf77e9138:  add    BYTE PTR [eax],al
   0xf77e913a:  add    BYTE PTR [eax],al
   0xf77e913c:  add    BYTE PTR [eax],al
   0xf77e913e:  add    BYTE PTR [eax],al
   0xf77e9140:  push   ss
   0xf77e9141:  add    BYTE PTR [eax],al
   0xf77e9143:  add    BYTE PTR [eax+0xd00000c],dl
   0xf77e9149:  add    BYTE PTR [eax],al
   0xf77e914b:  add    BYTE PTR [edx],dl
   0xf77e914d:  add    BYTE PTR [eax+eax*1],cl
   0xf77e9150:  sub    BYTE PTR [eax],al
   0xf77e9152:  add    BYTE PTR [eax],al
   0xf77e9154:  loopne 0xf77e9160
   0xf77e9156:  add    BYTE PTR [eax],al
   0xf77e9158:  ins    BYTE PTR es:[edi],dx
   0xf77e9159:  add    DWORD PTR [eax],eax
   0xf77e915b:  add    BYTE PTR [edx],dl
   0xf77e915d:  add    BYTE PTR [eax+eax*1],cl
   0xf77e9160:  dec    eax
   0xf77e9161:  add    BYTE PTR [eax],al
   0xf77e9163:  add    BYTE PTR [eax+0x900000c],dh
   0xf77e9169:  add    BYTE PTR [eax],al
   0xf77e916b:  add    BYTE PTR [edx],dl
   0xf77e916d:  add    BYTE PTR [eax+eax*1],cl
   0xf77e9170:  cmp    al,0x0
   0xf77e9172:  add    BYTE PTR [eax],al
   0xf77e9174:  push   eax
   0xf77e9175:  or     al,0x0
   0xf77e9177:  add    BYTE PTR [eax],ch
   0xf77e9179:  add    BYTE PTR [eax],al
   0xf77e917b:  add    BYTE PTR [edx],dl
   0xf77e917d:  add    BYTE PTR [eax+eax*1],cl
   0xf77e9180:  mov    eax,DWORD PTR [eax]
   0xf77e9182:  add    BYTE PTR [eax],al
   0xf77e9184:  add    BYTE PTR [eax],al
   0xf77e9186:  add    BYTE PTR [eax],al
   0xf77e9188:  add    BYTE PTR [eax],al
   0xf77e918a:  add    BYTE PTR [eax],al
   0xf77e918c:  adc    DWORD PTR [eax],eax
   0xf77e918e:  icebp
   0xf77e918f:  call   FWORD PTR [ebx+0x0]
   0xf77e9192:  add    BYTE PTR [eax],al
   0xf77e9194:  ror    BYTE PTR [eax+eax*1],0x0
   0xf77e9198:  or     BYTE PTR [eax],al
   0xf77e919a:  add    BYTE PTR [eax],al
   0xf77e919c:  adc    al,BYTE PTR [eax]
   0xf77e919e:  or     al,0x0
   0xf77e91a0:  add    DWORD PTR [eax],eax
   0xf77e91a2:  add    BYTE PTR [eax],al
   0xf77e91a4:  xor    BYTE PTR [eax],cl
   0xf77e91a6:  add    BYTE PTR [eax],al
   0xf77e91a8:  mov    al,0x2
   0xf77e91aa:  add    BYTE PTR [eax],al
   0xf77e91ac:  adc    al,BYTE PTR [eax]
   0xf77e91ae:  or     al,0x0
   0xf77e91b0:  add    DWORD PTR [eax],0x0
   0xf77e91b6:  add    BYTE PTR [eax],al
   0xf77e91b8:  add    BYTE PTR [eax],al
   0xf77e91ba:  add    BYTE PTR [eax],al
   0xf77e91bc:  adc    DWORD PTR [eax],eax
   0xf77e91be:  icebp
   0xf77e91bf:  inc    DWORD PTR [eax]
   0xf77e91c1:  pop    edi
   0xf77e91c2:  pop    edi
   0xf77e91c3:  jbe    0xf77e9229
   0xf77e91c5:  jae    0xf77e9236
   0xf77e91c7:  pop    edi
   0xf77e91c8:  arpl   WORD PTR [edi+ebp*2+0x63],bp
   0xf77e91cc:  imul   ebx,DWORD PTR [edi+0x67],0x65
   0xf77e91d0:  je     0xf77e9246
   0xf77e91d2:  imul   ebp,DWORD PTR [ebp+0x65],0x6b5f5f00
   0xf77e91d9:  gs jb  0xf77e924a
   0xf77e91dc:  gs ins BYTE PTR es:[edi],dx
   0xf77e91de:  pop    edi
   0xf77e91df:  jbe    0xf77e9254
   0xf77e91e1:  jns    0xf77e9256
   0xf77e91e3:  arpl   WORD PTR [ecx+0x6c],sp
   0xf77e91e6:  ins    BYTE PTR es:[edi],dx
   0xf77e91e7:  add    BYTE PTR [edi+0x5f],bl
   0xf77e91ea:  jbe    0xf77e9250
   0xf77e91ec:  jae    0xf77e925d
   0xf77e91ee:  pop    edi
   0xf77e91ef:  addr16 gs je 0xf77e9267
   0xf77e91f3:  imul   ebp,DWORD PTR [ebp+0x65],0x6164666f
   0xf77e91fa:  jns    0xf77e91fc
   0xf77e91fc:  pop    edi
   0xf77e91fd:  pop    edi
   0xf77e91fe:  jbe    0xf77e9264
   0xf77e9200:  jae    0xf77e9271
   0xf77e9202:  pop    edi
   0xf77e9203:  je     0xf77e926e
   0xf77e9205:  ins    DWORD PTR es:[edi],dx
   0xf77e9206:  add    BYTE PTR gs:[edi+0x5f],bl
   0xf77e920a:  imul   esp,DWORD PTR [ebp+0x72],0x6e
   0xf77e920e:  gs ins BYTE PTR es:[edi],dx
   0xf77e9210:  pop    edi
   0xf77e9211:  jae    0xf77e927c
   0xf77e9213:  addr16 jb 0xf77e927b
   0xf77e9216:  je     0xf77e928d
   0xf77e9218:  jb     0xf77e9288
   0xf77e921a:  add    BYTE PTR [edi+0x5f],bl
   0xf77e921d:  imul   esp,DWORD PTR [ebp+0x72],0x6e
   0xf77e9221:  gs ins BYTE PTR es:[edi],dx
   0xf77e9223:  pop    edi
   0xf77e9224:  jb     0xf77e929a
   0xf77e9226:  pop    edi
   0xf77e9227:  jae    0xf77e9292
   0xf77e9229:  addr16 jb 0xf77e9291
   0xf77e922c:  je     0xf77e92a3
   0xf77e922e:  jb     0xf77e929e
   0xf77e9230:  add    BYTE PTR [ecx+ebp*2+0x6e],ch
   0xf77e9234:  jne    0xf77e92ae
   0xf77e9236:  sub    eax,0x65746167
   0xf77e923b:  cs jae 0xf77e92ad
   0xf77e923e:  xor    DWORD PTR cs:[eax],eax
   0xf77e9241:  dec    esp
   0xf77e9242:  dec    ecx
   0xf77e9243:  dec    esi
   0xf77e9244:  push   ebp
   0xf77e9245:  pop    eax
   0xf77e9246:  pop    edi
   0xf77e9247:  xor    ch,BYTE PTR [esi]
   0xf77e9249:  add    BYTE PTR ss:[ecx+ecx*2+0x4e],cl
   0xf77e924e:  push   ebp
   0xf77e924f:  pop    eax
   0xf77e9250:  pop    edi
   0xf77e9251:  xor    ch,BYTE PTR [esi]
   0xf77e9253:  xor    eax,0x0
   0xf77e9258:  add    eax,DWORD PTR [eax]
   0xf77e925a:  add    al,BYTE PTR [eax]
   0xf77e925c:  add    eax,DWORD PTR [eax]
   0xf77e925e:  add    al,BYTE PTR [eax]
   0xf77e9260:  add    eax,DWORD PTR [eax]
   0xf77e9262:  add    eax,DWORD PTR [eax]
   0xf77e9264:  add    al,BYTE PTR [eax]
   0xf77e9266:  add    al,BYTE PTR [eax]
   0xf77e9268:  add    DWORD PTR [eax],eax
   0xf77e926a:  add    DWORD PTR [eax],eax
   0xf77e926c:  add    DWORD PTR [eax],eax
   0xf77e926e:  add    DWORD PTR [eax],eax
   0xf77e9270:  xchg   ecx,eax
   0xf77e9271:  lock into
   0xf77e9273:  unpcklps xmm0,XMMWORD PTR [eax]
   0xf77e9276:  add    BYTE PTR [eax],al
   0xf77e9278:  sbb    al,0x0
   0xf77e927a:  add    BYTE PTR [eax],al
   0xf77e927c:  jno    0xf77e927e
   0xf77e927e:  add    BYTE PTR [eax],al
   0xf77e9280:  add    BYTE PTR [eax],al
   0xf77e9282:  add    BYTE PTR [eax],al
   0xf77e9284:  add    DWORD PTR [eax],eax
   0xf77e9286:  add    BYTE PTR [eax],al
   0xf77e9288:  add    al,BYTE PTR [eax]
   0xf77e928a:  add    DWORD PTR [eax],eax
   0xf77e928c:  div    BYTE PTR [ebp-0x52]
   0xf77e928f:  add    edx,DWORD PTR [eax+eax*1]
   0xf77e9292:  add    BYTE PTR [eax],al
   0xf77e9294:  sbb    al,0x0
   0xf77e9296:  add    BYTE PTR [eax],al
   0xf77e9298:  add    DWORD PTR [eax],0x0
   0xf77e929e:  add    BYTE PTR [eax],al
   0xf77e92a0:  add    DWORD PTR [eax],eax
   0xf77e92a2:  add    BYTE PTR [eax],al
   0xf77e92a4:  add    eax,DWORD PTR [eax]
   0xf77e92a6:  add    DWORD PTR [eax],eax
   0xf77e92a8:  cmc
   0xf77e92a9:  jne    0xf77e9259
   0xf77e92ab:  add    edx,DWORD PTR [eax+eax*1]
   0xf77e92ae:  add    BYTE PTR [eax],al
   0xf77e92b0:  add    BYTE PTR [eax],al
   0xf77e92b2:  add    BYTE PTR [eax],al
   0xf77e92b4:  mov    eax,DWORD PTR [eax]
   0xf77e92b6:  add    BYTE PTR [eax],al
   0xf77e92b8:  add    BYTE PTR [eax],al
   0xf77e92ba:  add    BYTE PTR [eax],al
   0xf77e92bc:  push   cs
   0xf77e92bd:  add    BYTE PTR [eax],al
   0xf77e92bf:  add    BYTE PTR [ecx+0x0],dh
   0xf77e92c2:  add    BYTE PTR [eax],al
   0xf77e92c4:  adc    BYTE PTR [eax],al
   0xf77e92c6:  add    BYTE PTR [eax],al
   0xf77e92c8:  add    BYTE PTR [eax],al
   0xf77e92ca:  add    BYTE PTR [eax],al
   0xf77e92cc:  add    al,0x0
   0xf77e92ce:  add    BYTE PTR [eax],al
   0xf77e92d0:  mov    ah,0x0
   0xf77e92d2:  add    BYTE PTR [eax],al
   0xf77e92d4:  cmc
   0xf77e92d5:  (bad)
   0xf77e92d6:  jmp    FWORD PTR [edi-0x14]
   0xf77e92d9:  add    BYTE PTR [eax],al
   0xf77e92db:  add    BYTE PTR ds:0xc0000000,al
   0xf77e92e1:  add    DWORD PTR [eax],eax
   0xf77e92e3:  add    BYTE PTR [esi],al
   0xf77e92e5:  add    BYTE PTR [eax],al
   0xf77e92e7:  add    BYTE PTR [eax],dh
   0xf77e92e9:  add    DWORD PTR [eax],eax
   0xf77e92eb:  add    BYTE PTR [edx],cl
   0xf77e92ed:  add    BYTE PTR [eax],al
   0xf77e92ef:  add    BYTE PTR [ebp+0xb000000],dl
   0xf77e92f5:  add    BYTE PTR [eax],al
   0xf77e92f7:  add    BYTE PTR [eax],dl
   0xf77e92f9:  add    BYTE PTR [eax],al
   0xf77e92fb:  add    ah,bh
   0xf77e92fd:  (bad)
   0xf77e92fe:  jmp    FWORD PTR [edi+0x68]
   0xf77e9301:  add    al,BYTE PTR [eax]
   0xf77e9303:  add    ch,bh
   0xf77e9305:  (bad)
   0xf77e9306:  jmp    FWORD PTR [edi+0x3]
   0xf77e9309:  add    BYTE PTR [eax],al
   0xf77e930b:  add    al,dh
   0xf77e930d:  (bad)
   0xf77e930e:  jmp    FWORD PTR [edi+0x56]
   0xf77e9311:  add    al,BYTE PTR [eax]
   0xf77e9313:  add    BYTE PTR [eax],al
   0xf77e9315:  add    BYTE PTR [eax],al
   0xf77e9317:  add    BYTE PTR [eax],al
   0xf77e9319:  add    BYTE PTR [eax],al
   0xf77e931b:  add    BYTE PTR [eax],al
   0xf77e931d:  add    BYTE PTR [eax],al
   0xf77e931f:  add    BYTE PTR [eax],al
   0xf77e9321:  add    BYTE PTR [eax],al
   0xf77e9323:  add    BYTE PTR [eax],al
   0xf77e9325:  add    BYTE PTR [eax],al
   0xf77e9327:  add    BYTE PTR [eax],al
   0xf77e9329:  add    BYTE PTR [eax],al
   0xf77e932b:  add    BYTE PTR [eax],al
   0xf77e932d:  add    BYTE PTR [eax],al
   0xf77e932f:  add    BYTE PTR [eax],al
   0xf77e9331:  add    BYTE PTR [eax],al
   0xf77e9333:  add    BYTE PTR [eax],al
   0xf77e9335:  add    BYTE PTR [eax],al
   0xf77e9337:  add    BYTE PTR [eax],al
   0xf77e9339:  add    BYTE PTR [eax],al
   0xf77e933b:  add    BYTE PTR [eax],al
   0xf77e933d:  add    BYTE PTR [eax],al
   0xf77e933f:  add    BYTE PTR [eax],al
   0xf77e9341:  add    BYTE PTR [eax],al
   0xf77e9343:  add    BYTE PTR [edx+eax*1+0x0],bh
   0xf77e934a:  add    BYTE PTR [eax],al
   0xf77e934c:  add    BYTE PTR [eax],al
   0xf77e934e:  add    BYTE PTR [eax],al
   0xf77e9350:  add    BYTE PTR [eax],al
   0xf77e9352:  add    BYTE PTR [eax],al
   0xf77e9354:  add    BYTE PTR [eax],al
   0xf77e9356:  add    BYTE PTR [eax],al
   0xf77e9358:  add    BYTE PTR [eax],al
   0xf77e935a:  add    BYTE PTR [eax],al
   0xf77e935c:  add    BYTE PTR [eax],al
   0xf77e935e:  add    BYTE PTR [eax],al
   0xf77e9360:  add    BYTE PTR [eax],al
   0xf77e9362:  add    BYTE PTR [eax],al
   0xf77e9364:  add    BYTE PTR [eax],al
   0xf77e9366:  add    BYTE PTR [eax],al
   0xf77e9368:  add    BYTE PTR [eax],al
   0xf77e936a:  add    BYTE PTR [eax],al
   0xf77e936c:  add    BYTE PTR [eax],al
   0xf77e936e:  add    BYTE PTR [eax],al
   0xf77e9370:  add    BYTE PTR [eax],al
   0xf77e9372:  add    BYTE PTR [eax],al
   0xf77e9374:  add    BYTE PTR [eax],al
   0xf77e9376:  add    BYTE PTR [eax],al
   0xf77e9378:  add    BYTE PTR [eax],al
   0xf77e937a:  add    BYTE PTR [eax],al
   0xf77e937c:  add    BYTE PTR [eax],al
   0xf77e937e:  add    BYTE PTR [eax],al
   0xf77e9380:  add    BYTE PTR [eax],al
   0xf77e9382:  add    BYTE PTR [eax],al
   0xf77e9384:  add    BYTE PTR [eax],al
   0xf77e9386:  add    BYTE PTR [eax],al
   0xf77e9388:  add    BYTE PTR [eax],al
   0xf77e938a:  add    BYTE PTR [eax],al
   0xf77e938c:  add    BYTE PTR [eax],al
   0xf77e938e:  add    BYTE PTR [eax],al
   0xf77e9390:  add    BYTE PTR [eax],al
   0xf77e9392:  add    BYTE PTR [eax],al
   0xf77e9394:  add    BYTE PTR [eax],al
   0xf77e9396:  add    BYTE PTR [eax],al
   0xf77e9398:  add    BYTE PTR [eax],al
   0xf77e939a:  add    BYTE PTR [eax],al
   0xf77e939c:  add    BYTE PTR [eax],al
   0xf77e939e:  add    BYTE PTR [eax],al
   0xf77e93a0:  add    BYTE PTR [eax],al
   0xf77e93a2:  add    BYTE PTR [eax],al
   0xf77e93a4:  add    BYTE PTR [eax],al
   0xf77e93a6:  add    BYTE PTR [eax],al
   0xf77e93a8:  add    BYTE PTR [eax],al
   0xf77e93aa:  add    BYTE PTR [eax],al
   0xf77e93ac:  add    BYTE PTR [eax],al
   0xf77e93ae:  add    BYTE PTR [eax],al
   0xf77e93b0:  add    BYTE PTR [eax],al
   0xf77e93b2:  add    BYTE PTR [eax],al
   0xf77e93b4:  add    BYTE PTR [eax],al
   0xf77e93b6:  add    BYTE PTR [eax],al
   0xf77e93b8:  add    BYTE PTR [eax],al
   0xf77e93ba:  add    BYTE PTR [eax],al
   0xf77e93bc:  add    BYTE PTR [eax],al
   0xf77e93be:  add    BYTE PTR [eax],al
   0xf77e93c0:  add    BYTE PTR [eax],al
   0xf77e93c2:  add    BYTE PTR [eax],al
   0xf77e93c4:  add    BYTE PTR [eax],al
   0xf77e93c6:  add    BYTE PTR [eax],al
   0xf77e93c8:  add    BYTE PTR [eax],al
   0xf77e93ca:  add    BYTE PTR [eax],al
   0xf77e93cc:  add    BYTE PTR [eax],al
   0xf77e93ce:  add    BYTE PTR [eax],al
   0xf77e93d0:  add    BYTE PTR [eax],al
   0xf77e93d2:  add    BYTE PTR [eax],al
   0xf77e93d4:  add    BYTE PTR [eax],al
   0xf77e93d6:  add    BYTE PTR [eax],al
   0xf77e93d8:  add    BYTE PTR [eax],al
   0xf77e93da:  add    BYTE PTR [eax],al
   0xf77e93dc:  add    BYTE PTR [eax],al
   0xf77e93de:  add    BYTE PTR [eax],al
   0xf77e93e0:  add    BYTE PTR [eax],al
   0xf77e93e2:  add    BYTE PTR [eax],al
   0xf77e93e4:  add    BYTE PTR [eax],al
   0xf77e93e6:  add    BYTE PTR [eax],al
   0xf77e93e8:  add    BYTE PTR [eax],al
   0xf77e93ea:  add    BYTE PTR [eax],al
   0xf77e93ec:  add    BYTE PTR [eax],al
   0xf77e93ee:  add    BYTE PTR [eax],al
   0xf77e93f0:  add    BYTE PTR [eax],al
   0xf77e93f2:  add    BYTE PTR [eax],al
   0xf77e93f4:  add    BYTE PTR [eax],al
   0xf77e93f6:  add    BYTE PTR [eax],al
   0xf77e93f8:  add    BYTE PTR [eax],al
   0xf77e93fa:  add    BYTE PTR [eax],al
   0xf77e93fc:  add    BYTE PTR [eax],al
   0xf77e93fe:  add    BYTE PTR [eax],al
   0xf77e9400:  add    BYTE PTR [eax],al
   0xf77e9402:  add    BYTE PTR [eax],al
   0xf77e9404:  add    BYTE PTR [eax],al
   0xf77e9406:  add    BYTE PTR [eax],al
   0xf77e9408:  add    BYTE PTR [eax],al
   0xf77e940a:  add    BYTE PTR [eax],al
   0xf77e940c:  add    BYTE PTR [eax],al
   0xf77e940e:  add    BYTE PTR [eax],al
   0xf77e9410:  add    BYTE PTR [eax],al
   0xf77e9412:  add    BYTE PTR [eax],al
   0xf77e9414:  add    BYTE PTR [eax],al
   0xf77e9416:  add    BYTE PTR [eax],al
   0xf77e9418:  add    BYTE PTR [eax],al
   0xf77e941a:  add    BYTE PTR [eax],al
   0xf77e941c:  add    BYTE PTR [eax],al
   0xf77e941e:  add    BYTE PTR [eax],al
   0xf77e9420:  add    BYTE PTR [eax],al
   0xf77e9422:  add    BYTE PTR [eax],al
   0xf77e9424:  add    BYTE PTR [eax],al
   0xf77e9426:  add    BYTE PTR [eax],al
   0xf77e9428:  add    BYTE PTR [eax],al
   0xf77e942a:  add    BYTE PTR [eax],al
   0xf77e942c:  add    BYTE PTR [eax],al
   0xf77e942e:  add    BYTE PTR [eax],al
   0xf77e9430:  add    BYTE PTR [eax],al
   0xf77e9432:  add    BYTE PTR [eax],al
   0xf77e9434:  add    BYTE PTR [eax],al
   0xf77e9436:  add    BYTE PTR [eax],al
   0xf77e9438:  add    BYTE PTR [eax],al
   0xf77e943a:  add    BYTE PTR [eax],al
   0xf77e943c:  add    BYTE PTR [eax],al
   0xf77e943e:  add    BYTE PTR [eax],al
   0xf77e9440:  add    BYTE PTR [eax],al
   0xf77e9442:  add    BYTE PTR [eax],al
   0xf77e9444:  add    BYTE PTR [eax],al
   0xf77e9446:  add    BYTE PTR [eax],al
   0xf77e9448:  add    BYTE PTR [eax],al
   0xf77e944a:  add    BYTE PTR [eax],al
   0xf77e944c:  add    BYTE PTR [eax],al
   0xf77e944e:  add    BYTE PTR [eax],al
   0xf77e9450:  add    BYTE PTR [eax],al
   0xf77e9452:  add    BYTE PTR [eax],al
   0xf77e9454:  add    BYTE PTR [eax],al
   0xf77e9456:  add    BYTE PTR [eax],al
   0xf77e9458:  add    BYTE PTR [eax],al
   0xf77e945a:  add    BYTE PTR [eax],al
   0xf77e945c:  add    BYTE PTR [eax],al
   0xf77e945e:  add    BYTE PTR [eax],al
   0xf77e9460:  add    BYTE PTR [eax],al
   0xf77e9462:  add    BYTE PTR [eax],al
   0xf77e9464:  add    BYTE PTR [eax],al
   0xf77e9466:  add    BYTE PTR [eax],al
   0xf77e9468:  add    BYTE PTR [eax],al
   0xf77e946a:  add    BYTE PTR [eax],al
   0xf77e946c:  add    BYTE PTR [eax],al
   0xf77e946e:  add    BYTE PTR [eax],al
   0xf77e9470:  add    BYTE PTR [eax],al
   0xf77e9472:  add    BYTE PTR [eax],al
   0xf77e9474:  add    BYTE PTR [eax],al
   0xf77e9476:  add    BYTE PTR [eax],al
   0xf77e9478:  add    BYTE PTR [eax],al
   0xf77e947a:  add    BYTE PTR [eax],al
   0xf77e947c:  add    BYTE PTR [eax],al
   0xf77e947e:  add    BYTE PTR [eax],al
   0xf77e9480:  add    BYTE PTR [eax],al
   0xf77e9482:  add    BYTE PTR [eax],al
   0xf77e9484:  add    BYTE PTR [eax],al
   0xf77e9486:  add    BYTE PTR [eax],al
   0xf77e9488:  add    BYTE PTR [eax],al
   0xf77e948a:  add    BYTE PTR [eax],al
   0xf77e948c:  add    BYTE PTR [eax],al
   0xf77e948e:  add    BYTE PTR [eax],al
   0xf77e9490:  add    BYTE PTR [eax],al
   0xf77e9492:  add    BYTE PTR [eax],al
   0xf77e9494:  add    BYTE PTR [eax],al
   0xf77e9496:  add    BYTE PTR [eax],al
   0xf77e9498:  add    BYTE PTR [eax],al
   0xf77e949a:  add    BYTE PTR [eax],al
   0xf77e949c:  add    BYTE PTR [eax],al
   0xf77e949e:  add    BYTE PTR [eax],al
   0xf77e94a0:  add    BYTE PTR [eax],al
   0xf77e94a2:  add    BYTE PTR [eax],al
   0xf77e94a4:  add    BYTE PTR [eax],al
   0xf77e94a6:  add    BYTE PTR [eax],al
   0xf77e94a8:  add    BYTE PTR [eax],al
   0xf77e94aa:  add    BYTE PTR [eax],al
   0xf77e94ac:  add    BYTE PTR [eax],al
   0xf77e94ae:  add    BYTE PTR [eax],al
   0xf77e94b0:  add    BYTE PTR [eax],al
   0xf77e94b2:  add    BYTE PTR [eax],al
   0xf77e94b4:  add    BYTE PTR [eax],al
   0xf77e94b6:  add    BYTE PTR [eax],al
   0xf77e94b8:  add    BYTE PTR [eax],al
   0xf77e94ba:  add    BYTE PTR [eax],al
   0xf77e94bc:  add    BYTE PTR [eax],al
   0xf77e94be:  add    BYTE PTR [eax],al
   0xf77e94c0:  add    BYTE PTR [eax],al
   0xf77e94c2:  add    BYTE PTR [eax],al
   0xf77e94c4:  add    BYTE PTR [eax],al
   0xf77e94c6:  add    BYTE PTR [eax],al
   0xf77e94c8:  add    BYTE PTR [eax],al
   0xf77e94ca:  add    BYTE PTR [eax],al
   0xf77e94cc:  add    BYTE PTR [eax],al
   0xf77e94ce:  add    BYTE PTR [eax],al
   0xf77e94d0:  add    BYTE PTR [eax],al
   0xf77e94d2:  add    BYTE PTR [eax],al
   0xf77e94d4:  add    BYTE PTR [eax],al
   0xf77e94d6:  add    BYTE PTR [eax],al
   0xf77e94d8:  add    BYTE PTR [eax],al
   0xf77e94da:  add    BYTE PTR [eax],al
   0xf77e94dc:  add    BYTE PTR [eax],al
   0xf77e94de:  add    BYTE PTR [eax],al
   0xf77e94e0:  add    BYTE PTR [eax],al
   0xf77e94e2:  add    BYTE PTR [eax],al
   0xf77e94e4:  add    BYTE PTR [eax],al
   0xf77e94e6:  add    BYTE PTR [eax],al
   0xf77e94e8:  add    BYTE PTR [eax],al
   0xf77e94ea:  add    BYTE PTR [eax],al
   0xf77e94ec:  add    BYTE PTR [eax],al
   0xf77e94ee:  add    BYTE PTR [eax],al
   0xf77e94f0:  add    BYTE PTR [eax],al
   0xf77e94f2:  add    BYTE PTR [eax],al
   0xf77e94f4:  add    BYTE PTR [eax],al
   0xf77e94f6:  add    BYTE PTR [eax],al
   0xf77e94f8:  add    BYTE PTR [eax],al
   0xf77e94fa:  add    BYTE PTR [eax],al
   0xf77e94fc:  add    BYTE PTR [eax],al
   0xf77e94fe:  add    BYTE PTR [eax],al
   0xf77e9500:  add    BYTE PTR [eax],al
   0xf77e9502:  add    BYTE PTR [eax],al
   0xf77e9504:  add    BYTE PTR [eax],al
   0xf77e9506:  add    BYTE PTR [eax],al
   0xf77e9508:  add    BYTE PTR [eax],al
   0xf77e950a:  add    BYTE PTR [eax],al
   0xf77e950c:  add    BYTE PTR [eax],al
   0xf77e950e:  add    BYTE PTR [eax],al
   0xf77e9510:  add    BYTE PTR [eax],al
   0xf77e9512:  add    BYTE PTR [eax],al
   0xf77e9514:  add    BYTE PTR [eax],al
   0xf77e9516:  add    BYTE PTR [eax],al
   0xf77e9518:  add    BYTE PTR [eax],al
   0xf77e951a:  add    BYTE PTR [eax],al
   0xf77e951c:  add    BYTE PTR [eax],al
   0xf77e951e:  add    BYTE PTR [eax],al
   0xf77e9520:  add    BYTE PTR [eax],al
   0xf77e9522:  add    BYTE PTR [eax],al
   0xf77e9524:  add    BYTE PTR [eax],al
   0xf77e9526:  add    BYTE PTR [eax],al
   0xf77e9528:  add    BYTE PTR [eax],al
   0xf77e952a:  add    BYTE PTR [eax],al
   0xf77e952c:  add    BYTE PTR [eax],al
   0xf77e952e:  add    BYTE PTR [eax],al
   0xf77e9530:  add    BYTE PTR [eax],al
   0xf77e9532:  add    BYTE PTR [eax],al
   0xf77e9534:  add    BYTE PTR [eax],al
   0xf77e9536:  add    BYTE PTR [eax],al
   0xf77e9538:  add    BYTE PTR [eax],al
   0xf77e953a:  add    BYTE PTR [eax],al
   0xf77e953c:  add    BYTE PTR [eax],al
   0xf77e953e:  add    BYTE PTR [eax],al
   0xf77e9540:  add    BYTE PTR [eax],al
   0xf77e9542:  add    BYTE PTR [eax],al
   0xf77e9544:  add    BYTE PTR [eax],al
   0xf77e9546:  add    BYTE PTR [eax],al
   0xf77e9548:  add    BYTE PTR [eax],al
   0xf77e954a:  add    BYTE PTR [eax],al
   0xf77e954c:  add    BYTE PTR [eax],al
   0xf77e954e:  add    BYTE PTR [eax],al
   0xf77e9550:  add    BYTE PTR [eax],al
   0xf77e9552:  add    BYTE PTR [eax],al
   0xf77e9554:  add    BYTE PTR [eax],al
   0xf77e9556:  add    BYTE PTR [eax],al
   0xf77e9558:  add    al,0x0
   0xf77e955a:  add    BYTE PTR [eax],al
   0xf77e955c:  adc    al,0x0
   0xf77e955e:  add    BYTE PTR [eax],al
   0xf77e9560:  add    eax,DWORD PTR [eax]
   0xf77e9562:  add    BYTE PTR [eax],al
   0xf77e9564:  inc    edi
   0xf77e9565:  dec    esi
   0xf77e9566:  push   ebp
   0xf77e9567:  add    BYTE PTR [edi],bl
   0xf77e9569:  mov    esi,0xc5bd5ff4
   0xf77e956e:  sahf
   0xf77e956f:  dec    esi
   0xf77e9570:  outs   dx,BYTE PTR ds:[esi]
   0xf77e9571:  sbb    edi,0x7f5d5484
   0xf77e9577:  pop    eax
   0xf77e9578:  jl     0xf77e9548
   0xf77e957a:  jmp    0xf77e9c19 <__vdso_gettimeofday+313>
   0xf77e957f:  add    BYTE PTR [eax+eax*1],al
   0xf77e9582:  add    BYTE PTR [eax],al
   0xf77e9584:  add    BYTE PTR [eax],al
   0xf77e9586:  add    BYTE PTR [eax],al
   0xf77e9588:  dec    esp
   0xf77e9589:  imul   ebp,DWORD PTR [esi+0x75],0x78
   0xf77e9590:  add    BYTE PTR [edx],cl
   0xf77e9592:  add    al,0x0
   0xf77e9594:  add    al,0x0
   0xf77e9596:  add    BYTE PTR [eax],al
   0xf77e9598:  adc    al,BYTE PTR [eax]
   0xf77e959a:  add    BYTE PTR [eax],al
   0xf77e959c:  add    al,BYTE PTR [eax]
   0xf77e959e:  add    BYTE PTR [eax],al
   0xf77e95a0:  inc    edi
   0xf77e95a1:  dec    esi
   0xf77e95a2:  push   ebp
   0xf77e95a3:  add    BYTE PTR [ecx],al
   0xf77e95a5:  add    BYTE PTR [eax],al
   0xf77e95a7:  add    BYTE PTR [eax],al
   0xf77e95a9:  add    BYTE PTR [eax],al
   0xf77e95ab:  add    BYTE PTR [ecx],al
   0xf77e95ad:  outs   dx,BYTE PTR ds:[esi]
   0xf77e95ae:  outs   dx,DWORD PTR ds:[esi]
   0xf77e95af:  jae    0xf77e9616
   0xf77e95b1:  outs   dx,BYTE PTR ds:[si]
   0xf77e95b3:  add    BYTE PTR gs:[bx+si],al
   0xf77e95b7:  add    BYTE PTR [ecx],al
   0xf77e95b9:  sbb    eax,DWORD PTR [ebx]
   0xf77e95bb:  cmp    esp,DWORD PTR [eax]
   0xf77e95bd:  add    BYTE PTR [eax],al
   0xf77e95bf:  add    BYTE PTR [ebx],al
   0xf77e95c1:  add    BYTE PTR [eax],al
   0xf77e95c3:  add    al,bl
   0xf77e95c5:  push   es
   0xf77e95c6:  add    BYTE PTR [eax],al
   0xf77e95c8:  cmp    al,0x0
   0xf77e95ca:  add    BYTE PTR [eax],al
   0xf77e95cc:  test   DWORD PTR [esi],0x7c0000
   0xf77e95d2:  add    BYTE PTR [eax],al
   0xf77e95d4:  pop    es
   0xf77e95d5:  pop    es
   0xf77e95d6:  add    BYTE PTR [eax],al
   0xf77e95d8:  call   0xb7e95dd
   0xf77e95dd:  add    BYTE PTR [eax],al
   0xf77e95df:  add    BYTE PTR [eax],al
   0xf77e95e1:  add    BYTE PTR [eax],al
   0xf77e95e3:  add    BYTE PTR [ecx],al
   0xf77e95e5:  jp     0xf77e9639
   0xf77e95e7:  add    BYTE PTR [ecx],al
   0xf77e95e9:  jl     0xf77e95f3
   0xf77e95eb:  add    DWORD PTR [ebx],ebx
   0xf77e95ed:  or     al,0x4
   0xf77e95ef:  add    al,0x88
   0xf77e95f1:  add    DWORD PTR [eax],eax
   0xf77e95f3:  add    BYTE PTR [eax],ch
   0xf77e95f5:  add    BYTE PTR [eax],al
   0xf77e95f7:  add    BYTE PTR [eax+eax*1],bl
   0xf77e95fa:  add    BYTE PTR [eax],al
   0xf77e95fc:  xchg   esp,eax
   0xf77e95fd:  push   es
   0xf77e95fe:  add    BYTE PTR [eax],al
   0xf77e9600:  or     eax,0x0
   0xf77e9605:  inc    ecx
   0xf77e9606:  push   cs
   0xf77e9607:  or     BYTE PTR [ecx+0xc0e4102],al
   0xf77e960d:  (bad)
   0xf77e960e:  add    eax,DWORD PTR [ecx+0xe]
   0xf77e9611:  adc    BYTE PTR [ebp+0xec54704],al
   0xf77e9617:  or     al,0x41
   0xf77e9619:  ret    0x80e
   0xf77e961c:  inc    ecx
   0xf77e961d:  ror    DWORD PTR [esi],0x4
   0xf77e9620:  adc    BYTE PTR [eax],al
   0xf77e9622:  add    BYTE PTR [eax],al
   0xf77e9624:  add    BYTE PTR [eax],al
   0xf77e9626:  add    BYTE PTR [eax],al
   0xf77e9628:  add    DWORD PTR [edx+0x52],edi
   0xf77e962b:  push   ebx
   0xf77e962c:  add    BYTE PTR [ecx],al
   0xf77e962e:  jl     0xf77e9638
   0xf77e9630:  add    DWORD PTR [ebx],ebx
   0xf77e9632:  add    BYTE PTR [eax],al
   0xf77e9634:  push   0x18000000
   0xf77e9639:  add    BYTE PTR [eax],al
   0xf77e963b:  add    BYTE PTR [ebx+0x6],dh
   0xf77e963e:  add    BYTE PTR [eax],al
   0xf77e9640:  or     DWORD PTR [eax],eax
   0xf77e9642:  add    BYTE PTR [eax],al
   0xf77e9644:  add    BYTE PTR [edi],cl
   0xf77e9646:  add    esi,DWORD PTR [eax+eiz*1+0x6]
   0xf77e964a:  adc    BYTE PTR [eax],al
   0xf77e964c:  add    dh,BYTE PTR [eax+esi*1+0x10]
   0xf77e9650:  add    DWORD PTR [edx],eax
   0xf77e9652:  je     0xf77e9680
   0xf77e9654:  adc    BYTE PTR [edx],al
   0xf77e9656:  add    dh,BYTE PTR [eax+ebp*1+0x10]
   0xf77e965a:  add    eax,DWORD PTR [edx]
   0xf77e965c:  je     0xf77e9682
   0xf77e965e:  adc    BYTE PTR ds:0x101c7402,al
   0xf77e9664:  push   es
   0xf77e9665:  add    dh,BYTE PTR [eax+ebx*1+0x10]
   0xf77e9669:  pop    es
   0xf77e966a:  add    dh,BYTE PTR [esp+edx*1+0x10]
   0xf77e966e:  or     BYTE PTR [edx],al
   0xf77e9670:  je     0xf77e96ae
   0xf77e9672:  inc    edx
   0xf77e9673:  lsl    esi,WORD PTR [esp+ebx*1+0x6]
   0xf77e9678:  adc    BYTE PTR [eax],al
   0xf77e967a:  add    dh,BYTE PTR [esp+ebp*1+0x10]
   0xf77e967e:  add    DWORD PTR [edx],eax
   0xf77e9680:  je     0xf77e96aa
   0xf77e9682:  adc    BYTE PTR [edx],al
   0xf77e9684:  add    dh,BYTE PTR [esp+0x10]
   0xf77e9688:  add    eax,DWORD PTR [edx]
   0xf77e968a:  je     0xf77e96ac
   0xf77e968c:  adc    BYTE PTR ds:0x10187402,al
   0xf77e9692:  push   es
   0xf77e9693:  add    dh,BYTE PTR [esp+edx*1+0x10]
   0xf77e9697:  pop    es
   0xf77e9698:  add    dh,BYTE PTR [eax+edx*1+0x10]
   0xf77e969c:  or     BYTE PTR [edx],al
   0xf77e969e:  je     0xf77e96d8
   0xf77e96a0:  inc    esp
   0xf77e96a1:  add    BYTE PTR [eax],al
   0xf77e96a3:  add    BYTE PTR [eax+eax*1+0x6170000],al
   0xf77e96aa:  add    BYTE PTR [eax],al
   0xf77e96ac:  or     BYTE PTR [eax],al
   0xf77e96ae:  add    BYTE PTR [eax],al
   0xf77e96b0:  add    BYTE PTR [edi],cl
   0xf77e96b2:  add    al,0x74
   0xf77e96b4:  mov    esp,0x100601
   0xf77e96b9:  add    esi,DWORD PTR [esp+ecx*8+0x1]
   0xf77e96bd:  adc    BYTE PTR [ecx],al
   0xf77e96bf:  add    esi,DWORD PTR [eax+ecx*8+0x1]
   0xf77e96c3:  adc    BYTE PTR [edx],al
   0xf77e96c5:  add    esi,DWORD PTR [esp+eax*8+0x1]
   0xf77e96c9:  adc    BYTE PTR [ebx],al
   0xf77e96cb:  add    esi,DWORD PTR [eax+eax*8+0x1]
   0xf77e96cf:  adc    BYTE PTR ds:0x1b87403,al
   0xf77e96d5:  adc    BYTE PTR [esi],al
   0xf77e96d7:  add    esi,DWORD PTR [esp+esi*4+0x1]
   0xf77e96db:  adc    BYTE PTR [edi],al
   0xf77e96dd:  add    esi,DWORD PTR [eax+esi*4+0x1]
   0xf77e96e1:  adc    BYTE PTR [eax],cl
   0xf77e96e3:  add    esi,DWORD PTR [eax+ebx*8+0x1]
   0xf77e96e7:  add    BYTE PTR [eax],al
   0xf77e96e9:  add    BYTE PTR [eax],al
   0xf77e96eb:  add    BYTE PTR [eax],al
   0xf77e96ed:  add    BYTE PTR [eax],al
   0xf77e96ef:  add    BYTE PTR [ebp-0x18],dl
   0xf77e96f2:  xchg   BYTE PTR ds:0xc1810000,al
   0xf77e96f8:  dec    esi
   0xf77e96f9:  cld
   0xf77e96fa:  (bad)
   0xf77e96fb:  dec    DWORD PTR [ecx+0xf5657e5]
   0xf77e9701:  scas   al,BYTE PTR es:[edi]
   0xf77e9702:  call   0xa909c816
   0xf77e9707:  inc    esp
   0xf77e9708:  (bad)
   0xf77e970a:  dec    DWORD PTR [ebx-0x22b777]
   0xf77e9710:  (bad)
   0xf77e9711:  cmp    ecx,edx
   0xf77e9713:  jb     0xf77e971b
   0xf77e9715:  jbe    0xf77e971f
   0xf77e9717:  mov    eax,esi
   0xf77e9719:  mov    edx,ecx
   0xf77e971b:  pop    esi
   0xf77e971c:  pop    edi
   0xf77e971d:  pop    ebp
   0xf77e971e:  ret
   0xf77e971f:  cmp    esi,eax
   0xf77e9721:  ja     0xf77e9717
   0xf77e9723:  pop    esi
   0xf77e9724:  pop    edi
   0xf77e9725:  pop    ebp
   0xf77e9726:  ret
   0xf77e9727:  mov    esi,esi
   0xf77e9729:  lea    edi,[edi+eiz*1+0x0]
   0xf77e9730:  push   ebp
   0xf77e9731:  mov    ebp,esp
   0xf77e9733:  push   edi
   0xf77e9734:  push   esi
   0xf77e9735:  call   0xf77e9c80
   0xf77e973a:  add    edi,0xfffffc0a
   0xf77e9740:  push   ebx
   0xf77e9741:  lea    esi,ds:0xffffecbc
   0xf77e9747:  sub    esp,0x1c
   0xf77e974a:  mov    DWORD PTR [ebp-0x24],eax
   0xf77e974d:  mov    ecx,DWORD PTR [edi-0x1344]
   0xf77e9753:  lea    eax,ds:0xffffecd9
   0xf77e9759:  mov    DWORD PTR [ebp-0x14],eax
   0xf77e975c:  and    ecx,0xfffffffe
   0xf77e975f:  mov    DWORD PTR [ebp-0x18],ecx
   0xf77e9762:  mov    eax,DWORD PTR [ebp-0x14]
   0xf77e9765:  test   BYTE PTR [eax+edi*1],0x1
   0xf77e9769:  je     0xf77e980f
   0xf77e976f:  lfence
   0xf77e9772:  rdtsc
   0xf77e9774:  movsx  ecx,BYTE PTR [edi-0x1328]
   0xf77e977b:  mov    ebx,DWORD PTR [esi+edi*1+0x18]
   0xf77e977f:  sub    eax,DWORD PTR [esi+edi*1+0x8]
   0xf77e9783:  sbb    edx,DWORD PTR [esi+edi*1+0xc]
   0xf77e9787:  mov    DWORD PTR [ebp-0x20],ebx
   0xf77e978a:  test   ecx,ecx
   0xf77e978c:  js     0xf77e97fb
   0xf77e978e:  shld   edx,eax,cl
   0xf77e9791:  xor    ebx,ebx
   0xf77e9793:  shl    eax,cl
   0xf77e9795:  and    ecx,0x20
   0xf77e9798:  cmovne edx,eax
   0xf77e979b:  cmovne eax,ebx
   0xf77e979e:  mov    ecx,DWORD PTR [ebp-0x20]
   0xf77e97a1:  mov    ebx,edx
   0xf77e97a3:  mul    ecx
   0xf77e97a5:  mov    eax,ebx
   0xf77e97a7:  mov    ebx,edx
   0xf77e97a9:  mul    ecx
   0xf77e97ab:  xor    ecx,ecx
   0xf77e97ad:  add    eax,ebx
   0xf77e97af:  adc    edx,ecx
   0xf77e97b1:  mov    ecx,DWORD PTR [esi+edi*1+0x10]
   0xf77e97b5:  mov    ebx,DWORD PTR [esi+edi*1+0x14]
   0xf77e97b9:  mov    DWORD PTR [ebp-0x20],ecx
   0xf77e97bc:  mov    DWORD PTR [ebp-0x1c],ebx
   0xf77e97bf:  mov    ecx,DWORD PTR [esi+edi*1]
   0xf77e97c2:  cmp    DWORD PTR [ebp-0x18],ecx
   0xf77e97c5:  jne    0xf77e975c
   0xf77e97c7:  mov    ecx,DWORD PTR [ebp-0x20]
   0xf77e97ca:  mov    ebx,DWORD PTR [ebp-0x1c]
   0xf77e97cd:  add    ecx,eax
   0xf77e97cf:  mov    eax,DWORD PTR [edi-0x22bc]
   0xf77e97d5:  adc    ebx,edx
   0xf77e97d7:  mov    edx,DWORD PTR [edi-0x22b8]
   0xf77e97dd:  cmp    edx,ebx
   0xf77e97df:  ja     0xf77e97e7
   0xf77e97e1:  jb     0xf77e97ef
   0xf77e97e3:  cmp    eax,ecx
   0xf77e97e5:  jb     0xf77e97ef
   0xf77e97e7:  add    esp,0x1c
   0xf77e97ea:  pop    ebx
   0xf77e97eb:  pop    esi
   0xf77e97ec:  pop    edi
   0xf77e97ed:  pop    ebp
   0xf77e97ee:  ret
   0xf77e97ef:  add    esp,0x1c
   0xf77e97f2:  mov    edx,ebx
   0xf77e97f4:  mov    eax,ecx
   0xf77e97f6:  pop    ebx
   0xf77e97f7:  pop    esi
   0xf77e97f8:  pop    edi
   0xf77e97f9:  pop    ebp
   0xf77e97fa:  ret
   0xf77e97fb:  neg    ecx
   0xf77e97fd:  xor    ebx,ebx
   0xf77e97ff:  shrd   eax,edx,cl
   0xf77e9802:  shr    edx,cl
   0xf77e9804:  and    ecx,0x20
   0xf77e9807:  cmovne eax,edx
   0xf77e980a:  cmovne edx,ebx
   0xf77e980d:  jmp    0xf77e979e
   0xf77e980f:  mov    eax,DWORD PTR [ebp-0x24]
   0xf77e9812:  xor    edx,edx
   0xf77e9814:  mov    DWORD PTR [eax],0x0
   0xf77e981a:  add    esp,0x1c
   0xf77e981d:  xor    eax,eax
   0xf77e981f:  pop    ebx
   0xf77e9820:  pop    esi
   0xf77e9821:  pop    edi
   0xf77e9822:  pop    ebp
   0xf77e9823:  ret
   0xf77e9824:  lea    esi,[esi+0x0]
   0xf77e982a:  lea    edi,[edi+0x0]
   0xf77e9830 <__vdso_clock_gettime>:   push   ebp
   0xf77e9831 <__vdso_clock_gettime+1>: mov    ebp,esp
   0xf77e9833 <__vdso_clock_gettime+3>: push   edi
   0xf77e9834 <__vdso_clock_gettime+4>: push   esi
   0xf77e9835 <__vdso_clock_gettime+5>: push   ebx
   0xf77e9836 <__vdso_clock_gettime+6>: lea    ebx,ds:0xffffdd3c
   0xf77e983c <__vdso_clock_gettime+12>:        call   0xf77e9c80
   0xf77e9841 <__vdso_clock_gettime+17>:        add    edi,0xfffffb03
   0xf77e9847 <__vdso_clock_gettime+23>:        sub    esp,0x1c
   0xf77e984a <__vdso_clock_gettime+26>:        cmp    DWORD PTR [ebp+0x8],0x1
   0xf77e984e <__vdso_clock_gettime+30>:        mov    esi,DWORD PTR [ebp+0xc]
   0xf77e9851 <__vdso_clock_gettime+33>:        je     0xf77e9976 <__vdso_clock_gettime+326>
   0xf77e9857 <__vdso_clock_gettime+39>:        jle    0xf77e98b3 <__vdso_clock_gettime+131>
   0xf77e9859 <__vdso_clock_gettime+41>:        cmp    DWORD PTR [ebp+0x8],0x5
   0xf77e985d <__vdso_clock_gettime+45>:        je     0xf77e9895 <__vdso_clock_gettime+101>
   0xf77e985f <__vdso_clock_gettime+47>:        cmp    DWORD PTR [ebp+0x8],0x6
   0xf77e9863 <__vdso_clock_gettime+51>:        jne    0xf77e995b <__vdso_clock_gettime+299>
   0xf77e9869 <__vdso_clock_gettime+57>:        mov    eax,DWORD PTR [edi-0x22c4]
   0xf77e986f <__vdso_clock_gettime+63>:        test   al,0x1
   0xf77e9871 <__vdso_clock_gettime+65>:        jne    0xf77e9ad9 <__vdso_clock_gettime+681>
   0xf77e9877 <__vdso_clock_gettime+71>:        mov    edx,DWORD PTR [ebx+edi*1+0x50]
   0xf77e987b <__vdso_clock_gettime+75>:        mov    DWORD PTR [esi],edx
   0xf77e987d <__vdso_clock_gettime+77>:        mov    edx,DWORD PTR [ebx+edi*1+0x58]
   0xf77e9881 <__vdso_clock_gettime+81>:        mov    DWORD PTR [esi+0x4],edx
   0xf77e9884 <__vdso_clock_gettime+84>:        cmp    eax,DWORD PTR [ebx+edi*1]
   0xf77e9887 <__vdso_clock_gettime+87>:        jne    0xf77e9869 <__vdso_clock_gettime+57>
   0xf77e9889 <__vdso_clock_gettime+89>:        add    esp,0x1c
   0xf77e988c <__vdso_clock_gettime+92>:        xor    eax,eax
   0xf77e988e <__vdso_clock_gettime+94>:        pop    ebx
   0xf77e988f <__vdso_clock_gettime+95>:        pop    esi
   0xf77e9890 <__vdso_clock_gettime+96>:        pop    edi
   0xf77e9891 <__vdso_clock_gettime+97>:        pop    ebp
   0xf77e9892 <__vdso_clock_gettime+98>:        ret
   0xf77e9893 <__vdso_clock_gettime+99>:        pause
   0xf77e9895 <__vdso_clock_gettime+101>:       mov    eax,DWORD PTR [edi-0x22c4]
   0xf77e989b <__vdso_clock_gettime+107>:       test   al,0x1
   0xf77e989d <__vdso_clock_gettime+109>:       jne    0xf77e9893 <__vdso_clock_gettime+99>
   0xf77e989f <__vdso_clock_gettime+111>:       mov    edx,DWORD PTR [ebx+edi*1+0x40]
   0xf77e98a3 <__vdso_clock_gettime+115>:       mov    DWORD PTR [esi],edx
   0xf77e98a5 <__vdso_clock_gettime+117>:       mov    edx,DWORD PTR [ebx+edi*1+0x48]
   0xf77e98a9 <__vdso_clock_gettime+121>:       mov    DWORD PTR [esi+0x4],edx
   0xf77e98ac <__vdso_clock_gettime+124>:       cmp    DWORD PTR [ebx+edi*1],eax
   0xf77e98af <__vdso_clock_gettime+127>:       je     0xf77e9889 <__vdso_clock_gettime+89>
   0xf77e98b1 <__vdso_clock_gettime+129>:       jmp    0xf77e9895 <__vdso_clock_gettime+101>
   0xf77e98b3 <__vdso_clock_gettime+131>:       lea    eax,[ebp-0x14]
   0xf77e98b6 <__vdso_clock_gettime+134>:       mov    DWORD PTR [ebp-0x20],eax
   0xf77e98b9 <__vdso_clock_gettime+137>:       mov    eax,DWORD PTR [ebp+0x8]
   0xf77e98bc <__vdso_clock_gettime+140>:       test   eax,eax
   0xf77e98be <__vdso_clock_gettime+142>:       jne    0xf77e995b <__vdso_clock_gettime+299>
   0xf77e98c4 <__vdso_clock_gettime+148>:       mov    DWORD PTR [ebp+0xc],esi
   0xf77e98c7 <__vdso_clock_gettime+151>:       mov    eax,DWORD PTR [edi-0x22c4]
   0xf77e98cd <__vdso_clock_gettime+157>:       test   al,0x1
   0xf77e98cf <__vdso_clock_gettime+159>:       mov    DWORD PTR [ebp-0x1c],eax
   0xf77e98d2 <__vdso_clock_gettime+162>:       jne    0xf77e9a9a <__vdso_clock_gettime+618>
   0xf77e98d8 <__vdso_clock_gettime+168>:       mov    eax,DWORD PTR [ebx+edi*1+0x4]
   0xf77e98dc <__vdso_clock_gettime+172>:       mov    edx,DWORD PTR [ebp+0xc]
   0xf77e98df <__vdso_clock_gettime+175>:       mov    DWORD PTR [ebp-0x14],eax
   0xf77e98e2 <__vdso_clock_gettime+178>:       mov    eax,DWORD PTR [ebx+edi*1+0x28]
   0xf77e98e6 <__vdso_clock_gettime+182>:       mov    DWORD PTR [edx],eax
   0xf77e98e8 <__vdso_clock_gettime+184>:       mov    ecx,DWORD PTR [ebx+edi*1+0x4]
   0xf77e98ec <__vdso_clock_gettime+188>:       mov    eax,DWORD PTR [ebx+edi*1+0x20]
   0xf77e98f0 <__vdso_clock_gettime+192>:       mov    edx,DWORD PTR [ebx+edi*1+0x24]
   0xf77e98f4 <__vdso_clock_gettime+196>:       cmp    ecx,0x1
   0xf77e98f7 <__vdso_clock_gettime+199>:       mov    DWORD PTR [ebp-0x28],eax
   0xf77e98fa <__vdso_clock_gettime+202>:       mov    DWORD PTR [ebp-0x24],edx
   0xf77e98fd <__vdso_clock_gettime+205>:       je     0xf77e9a71 <__vdso_clock_gettime+577>
   0xf77e9903 <__vdso_clock_gettime+211>:       xor    eax,eax
   0xf77e9905 <__vdso_clock_gettime+213>:       xor    edx,edx
   0xf77e9907 <__vdso_clock_gettime+215>:       cmp    ecx,0x2
   0xf77e990a <__vdso_clock_gettime+218>:       je     0xf77e9ac2 <__vdso_clock_gettime+658>
   0xf77e9910 <__vdso_clock_gettime+224>:       mov    ecx,DWORD PTR [ebx+edi*1+0x1c]
   0xf77e9914 <__vdso_clock_gettime+228>:       mov    esi,DWORD PTR [ebp-0x1c]
   0xf77e9917 <__vdso_clock_gettime+231>:       cmp    DWORD PTR [ebx+edi*1],esi
   0xf77e991a <__vdso_clock_gettime+234>:       jne    0xf77e98c7 <__vdso_clock_gettime+151>
   0xf77e991c <__vdso_clock_gettime+236>:       add    eax,DWORD PTR [ebp-0x28]
   0xf77e991f <__vdso_clock_gettime+239>:       mov    esi,DWORD PTR [ebp+0xc]
   0xf77e9922 <__vdso_clock_gettime+242>:       adc    edx,DWORD PTR [ebp-0x24]
   0xf77e9925 <__vdso_clock_gettime+245>:       xor    ebx,ebx
   0xf77e9927 <__vdso_clock_gettime+247>:       shrd   eax,edx,cl
   0xf77e992a <__vdso_clock_gettime+250>:       shr    edx,cl
   0xf77e992c <__vdso_clock_gettime+252>:       test   cl,0x20
   0xf77e992f <__vdso_clock_gettime+255>:       cmovne eax,edx
   0xf77e9932 <__vdso_clock_gettime+258>:       cmovne edx,ebx
   0xf77e9935 <__vdso_clock_gettime+261>:       cmp    edx,0x0
   0xf77e9938 <__vdso_clock_gettime+264>:       ja     0xf77e9a2a <__vdso_clock_gettime+506>
   0xf77e993e <__vdso_clock_gettime+270>:       xor    ecx,ecx
   0xf77e9940 <__vdso_clock_gettime+272>:       cmp    eax,0x3b9ac9ff
   0xf77e9945 <__vdso_clock_gettime+277>:       ja     0xf77e9a2a <__vdso_clock_gettime+506>
   0xf77e994b <__vdso_clock_gettime+283>:       add    DWORD PTR [esi],ecx
   0xf77e994d <__vdso_clock_gettime+285>:       mov    DWORD PTR [esi+0x4],eax
   0xf77e9950 <__vdso_clock_gettime+288>:       mov    edi,DWORD PTR [ebp-0x14]
   0xf77e9953 <__vdso_clock_gettime+291>:       test   edi,edi
   0xf77e9955 <__vdso_clock_gettime+293>:       jne    0xf77e9889 <__vdso_clock_gettime+89>
   0xf77e995b <__vdso_clock_gettime+299>:       mov    ecx,esi
   0xf77e995d <__vdso_clock_gettime+301>:       mov    eax,0x109
   0xf77e9962 <__vdso_clock_gettime+306>:       mov    edx,ebx
   0xf77e9964 <__vdso_clock_gettime+308>:       mov    ebx,DWORD PTR [ebp+0x8]
   0xf77e9967 <__vdso_clock_gettime+311>:       call   0xf77e9c90 <__kernel_vsyscall>
   0xf77e996c <__vdso_clock_gettime+316>:       mov    ebx,edx
   0xf77e996e <__vdso_clock_gettime+318>:       add    esp,0x1c
   0xf77e9971 <__vdso_clock_gettime+321>:       pop    ebx
   0xf77e9972 <__vdso_clock_gettime+322>:       pop    esi
   0xf77e9973 <__vdso_clock_gettime+323>:       pop    edi
   0xf77e9974 <__vdso_clock_gettime+324>:       pop    ebp
   0xf77e9975 <__vdso_clock_gettime+325>:       ret
   0xf77e9976 <__vdso_clock_gettime+326>:
        lea    eax,[ebp-0x14]
   0xf77e9979 <__vdso_clock_gettime+329>:       mov    DWORD PTR [ebp-0x20],eax
   0xf77e997c <__vdso_clock_gettime+332>:       mov    eax,DWORD PTR [edi-0x22c4]
   0xf77e9982 <__vdso_clock_gettime+338>:       test   al,0x1
   0xf77e9984 <__vdso_clock_gettime+340>:       mov    DWORD PTR [ebp-0x1c],eax
   0xf77e9987 <__vdso_clock_gettime+343>:       jne    0xf77e9aae <__vdso_clock_gettime+638>
   0xf77e998d <__vdso_clock_gettime+349>:       mov    eax,DWORD PTR [ebx+edi*1+0x4]
   0xf77e9991 <__vdso_clock_gettime+353>:       mov    edx,DWORD PTR [ebp+0xc]
   0xf77e9994 <__vdso_clock_gettime+356>:       mov    DWORD PTR [ebp-0x14],eax
   0xf77e9997 <__vdso_clock_gettime+359>:       mov    eax,DWORD PTR [ebx+edi*1+0x30]
   0xf77e999b <__vdso_clock_gettime+363>:       mov    DWORD PTR [edx],eax
   0xf77e999d <__vdso_clock_gettime+365>:       mov    ecx,DWORD PTR [ebx+edi*1+0x4]
   0xf77e99a1 <__vdso_clock_gettime+369>:       mov    eax,DWORD PTR [ebx+edi*1+0x38]
   0xf77e99a5 <__vdso_clock_gettime+373>:       mov    edx,DWORD PTR [ebx+edi*1+0x3c]
   0xf77e99a9 <__vdso_clock_gettime+377>:       cmp    ecx,0x1
   0xf77e99ac <__vdso_clock_gettime+380>:       mov    DWORD PTR [ebp-0x28],eax
   0xf77e99af <__vdso_clock_gettime+383>:       mov    DWORD PTR [ebp-0x24],edx
   0xf77e99b2 <__vdso_clock_gettime+386>:       je     0xf77e9a48 <__vdso_clock_gettime+536>
   0xf77e99b8 <__vdso_clock_gettime+392>:       xor    eax,eax
   0xf77e99ba <__vdso_clock_gettime+394>:       xor    edx,edx
   0xf77e99bc <__vdso_clock_gettime+396>:       cmp    ecx,0x2
   0xf77e99bf <__vdso_clock_gettime+399>:       je     0xf77e9acc <__vdso_clock_gettime+668>
   0xf77e99c5 <__vdso_clock_gettime+405>:       mov    ecx,DWORD PTR [ebx+edi*1+0x1c]
   0xf77e99c9 <__vdso_clock_gettime+409>:       mov    esi,DWORD PTR [ebp-0x1c]
   0xf77e99cc <__vdso_clock_gettime+412>:       cmp    DWORD PTR [ebx+edi*1],esi
   0xf77e99cf <__vdso_clock_gettime+415>:       jne    0xf77e997c <__vdso_clock_gettime+332>
   0xf77e99d1 <__vdso_clock_gettime+417>:       add    eax,DWORD PTR [ebp-0x28]
   0xf77e99d4 <__vdso_clock_gettime+420>:       mov    esi,DWORD PTR [ebp+0xc]
   0xf77e99d7 <__vdso_clock_gettime+423>:       adc    edx,DWORD PTR [ebp-0x24]
   0xf77e99da <__vdso_clock_gettime+426>:       xor    ebx,ebx
   0xf77e99dc <__vdso_clock_gettime+428>:       shrd   eax,edx,cl
   0xf77e99df <__vdso_clock_gettime+431>:       shr    edx,cl
   0xf77e99e1 <__vdso_clock_gettime+433>:       test   cl,0x20
   0xf77e99e4 <__vdso_clock_gettime+436>:       cmovne eax,edx
   0xf77e99e7 <__vdso_clock_gettime+439>:       cmovne edx,ebx
   0xf77e99ea <__vdso_clock_gettime+442>:       cmp    edx,0x0
   0xf77e99ed <__vdso_clock_gettime+445>:       ja     0xf77e99fc <__vdso_clock_gettime+460>
   0xf77e99ef <__vdso_clock_gettime+447>:       xor    ecx,ecx
   0xf77e99f1 <__vdso_clock_gettime+449>:       cmp    eax,0x3b9ac9ff
   0xf77e99f6 <__vdso_clock_gettime+454>:       jbe    0xf77e994b <__vdso_clock_gettime+283>
   0xf77e99fc <__vdso_clock_gettime+460>:       xor    ecx,ecx
   0xf77e99fe <__vdso_clock_gettime+462>:       add    eax,0xc4653600
   0xf77e9a03 <__vdso_clock_gettime+467>:       adc    edx,0xffffffff
   0xf77e9a06 <__vdso_clock_gettime+470>:       add    ecx,0x1
   0xf77e9a09 <__vdso_clock_gettime+473>:       cmp    edx,0x0
   0xf77e9a0c <__vdso_clock_gettime+476>:       ja     0xf77e99fe <__vdso_clock_gettime+462>
   0xf77e9a0e <__vdso_clock_gettime+478>:       cmp    eax,0x3b9ac9ff
   0xf77e9a13 <__vdso_clock_gettime+483>:       ja     0xf77e99fe <__vdso_clock_gettime+462>
   0xf77e9a15 <__vdso_clock_gettime+485>:       add    DWORD PTR [esi],ecx
   0xf77e9a17 <__vdso_clock_gettime+487>:       mov    DWORD PTR [esi+0x4],eax
   0xf77e9a1a <__vdso_clock_gettime+490>:       mov    edi,DWORD PTR [ebp-0x14]
   0xf77e9a1d <__vdso_clock_gettime+493>:       test   edi,edi
   0xf77e9a1f <__vdso_clock_gettime+495>:       je     0xf77e995b <__vdso_clock_gettime+299>
   0xf77e9a25 <__vdso_clock_gettime+501>:       jmp    0xf77e9889 <__vdso_clock_gettime+89>
   0xf77e9a2a <__vdso_clock_gettime+506>:       xor    ecx,ecx
   0xf77e9a2c <__vdso_clock_gettime+508>:       add    eax,0xc4653600
   0xf77e9a31 <__vdso_clock_gettime+513>:       adc    edx,0xffffffff
   0xf77e9a34 <__vdso_clock_gettime+516>:       add    ecx,0x1
   0xf77e9a37 <__vdso_clock_gettime+519>:       cmp    edx,0x0
   0xf77e9a3a <__vdso_clock_gettime+522>:       ja     0xf77e9a2c <__vdso_clock_gettime+508>
   0xf77e9a3c <__vdso_clock_gettime+524>:       cmp    eax,0x3b9ac9ff
   0xf77e9a41 <__vdso_clock_gettime+529>:       ja     0xf77e9a2c <__vdso_clock_gettime+508>
   0xf77e9a43 <__vdso_clock_gettime+531>:       jmp    0xf77e994b <__vdso_clock_gettime+283>
   0xf77e9a48 <__vdso_clock_gettime+536>:       call   0xf77e96f0
   0xf77e9a4d <__vdso_clock_gettime+541>:       sub    eax,DWORD PTR [ebx+edi*1+0x8]
   0xf77e9a51 <__vdso_clock_gettime+545>:       mov    esi,DWORD PTR [ebx+edi*1+0x10]
   0xf77e9a55 <__vdso_clock_gettime+549>:       sbb    edx,DWORD PTR [ebx+edi*1+0xc]
   0xf77e9a59 <__vdso_clock_gettime+553>:       mov    ecx,DWORD PTR [ebx+edi*1+0x14]
   0xf77e9a5d <__vdso_clock_gettime+557>:       and    esi,eax
   0xf77e9a5f <__vdso_clock_gettime+559>:       mov    eax,DWORD PTR [ebx+edi*1+0x18]
   0xf77e9a63 <__vdso_clock_gettime+563>:       and    ecx,edx
   0xf77e9a65 <__vdso_clock_gettime+565>:       imul   ecx,eax
   0xf77e9a68 <__vdso_clock_gettime+568>:       mul    esi
   0xf77e9a6a <__vdso_clock_gettime+570>:       add    edx,ecx
   0xf77e9a6c <__vdso_clock_gettime+572>:       jmp    0xf77e99c5 <__vdso_clock_gettime+405>
   0xf77e9a71 <__vdso_clock_gettime+577>:       call   0xf77e96f0
   0xf77e9a76 <__vdso_clock_gettime+582>:       sub    eax,DWORD PTR [ebx+edi*1+0x8]
   0xf77e9a7a <__vdso_clock_gettime+586>:       mov    esi,DWORD PTR [ebx+edi*1+0x10]
   0xf77e9a7e <__vdso_clock_gettime+590>:       sbb    edx,DWORD PTR [ebx+edi*1+0xc]
   0xf77e9a82 <__vdso_clock_gettime+594>:       mov    ecx,DWORD PTR [ebx+edi*1+0x14]
   0xf77e9a86 <__vdso_clock_gettime+598>:       and    esi,eax
   0xf77e9a88 <__vdso_clock_gettime+600>:       mov    eax,DWORD PTR [ebx+edi*1+0x18]
   0xf77e9a8c <__vdso_clock_gettime+604>:       and    ecx,edx
   0xf77e9a8e <__vdso_clock_gettime+606>:       imul   ecx,eax
   0xf77e9a91 <__vdso_clock_gettime+609>:       mul    esi
   0xf77e9a93 <__vdso_clock_gettime+611>:       add    edx,ecx
   0xf77e9a95 <__vdso_clock_gettime+613>:       jmp    0xf77e9910 <__vdso_clock_gettime+224>
   0xf77e9a9a <__vdso_clock_gettime+618>:       pause
   0xf77e9a9c <__vdso_clock_gettime+620>:       mov    eax,DWORD PTR [edi-0x22c4]
   0xf77e9aa2 <__vdso_clock_gettime+626>:       test   al,0x1
   0xf77e9aa4 <__vdso_clock_gettime+628>:       jne    0xf77e9a9a <__vdso_clock_gettime+618>
   0xf77e9aa6 <__vdso_clock_gettime+630>:       mov    DWORD PTR [ebp-0x1c],eax
   0xf77e9aa9 <__vdso_clock_gettime+633>:       jmp    0xf77e98d8 <__vdso_clock_gettime+168>
   0xf77e9aae <__vdso_clock_gettime+638>:       pause
   0xf77e9ab0 <__vdso_clock_gettime+640>:       mov    eax,DWORD PTR [edi-0x22c4]
   0xf77e9ab6 <__vdso_clock_gettime+646>:       test   al,0x1
   0xf77e9ab8 <__vdso_clock_gettime+648>:       jne    0xf77e9aae <__vdso_clock_gettime+638>
   0xf77e9aba <__vdso_clock_gettime+650>:       mov    DWORD PTR [ebp-0x1c],eax
   0xf77e9abd <__vdso_clock_gettime+653>:       jmp    0xf77e998d <__vdso_clock_gettime+349>
   0xf77e9ac2 <__vdso_clock_gettime+658>:       mov    eax,DWORD PTR [ebp-0x20]
   0xf77e9ac5 <__vdso_clock_gettime+661>:       call   0xf77e9730
   0xf77e9aca <__vdso_clock_gettime+666>:       jmp    0xf77e9a76 <__vdso_clock_gettime+582>
   0xf77e9acc <__vdso_clock_gettime+668>:       mov    eax,DWORD PTR [ebp-0x20]
   0xf77e9acf <__vdso_clock_gettime+671>:       call   0xf77e9730
   0xf77e9ad4 <__vdso_clock_gettime+676>:       jmp    0xf77e9a4d <__vdso_clock_gettime+541>
   0xf77e9ad9 <__vdso_clock_gettime+681>:       pause
   0xf77e9adb <__vdso_clock_gettime+683>:       jmp    0xf77e9869 <__vdso_clock_gettime+57>
   0xf77e9ae0 <__vdso_gettimeofday>:    push   ebp
   0xf77e9ae1 <__vdso_gettimeofday+1>:  mov    ebp,esp
   0xf77e9ae3 <__vdso_gettimeofday+3>:  push   edi
   0xf77e9ae4 <__vdso_gettimeofday+4>:  push   esi
   0xf77e9ae5 <__vdso_gettimeofday+5>:  push   ebx
   0xf77e9ae6 <__vdso_gettimeofday+6>:  call   0xf77e9c80
   0xf77e9aeb <__vdso_gettimeofday+11>: add    edi,0xfffff859
   0xf77e9af1 <__vdso_gettimeofday+17>: sub    esp,0x1c
   0xf77e9af4 <__vdso_gettimeofday+20>: mov    esi,DWORD PTR [ebp+0x8]
   0xf77e9af7 <__vdso_gettimeofday+23>: test   esi,esi
   0xf77e9af9 <__vdso_gettimeofday+25>: je     0xf77e9bbb <__vdso_gettimeofday+219>
   0xf77e9aff <__vdso_gettimeofday+31>: lea    eax,[ebp-0x14]
   0xf77e9b02 <__vdso_gettimeofday+34>: lea    ebx,ds:0xffffdd3c
   0xf77e9b08 <__vdso_gettimeofday+40>: mov    DWORD PTR [ebp-0x20],eax
   0xf77e9b0b <__vdso_gettimeofday+43>: mov    eax,DWORD PTR [edi-0x22c4]
   0xf77e9b11 <__vdso_gettimeofday+49>: test   al,0x1
   0xf77e9b13 <__vdso_gettimeofday+51>: mov    DWORD PTR [ebp-0x1c],eax
   0xf77e9b16 <__vdso_gettimeofday+54>: jne    0xf77e9bd7 <__vdso_gettimeofday+247>
   0xf77e9b1c <__vdso_gettimeofday+60>: mov    eax,DWORD PTR [ebx+edi*1+0x4]
   0xf77e9b20 <__vdso_gettimeofday+64>: mov    edx,DWORD PTR [ebp+0x8]
   0xf77e9b23 <__vdso_gettimeofday+67>: mov    DWORD PTR [ebp-0x14],eax
   0xf77e9b26 <__vdso_gettimeofday+70>: mov    eax,DWORD PTR [ebx+edi*1+0x28]
   0xf77e9b2a <__vdso_gettimeofday+74>: mov    DWORD PTR [edx],eax
   0xf77e9b2c <__vdso_gettimeofday+76>: mov    ecx,DWORD PTR [ebx+edi*1+0x4]
   0xf77e9b30 <__vdso_gettimeofday+80>: mov    eax,DWORD PTR [ebx+edi*1+0x20]
   0xf77e9b34 <__vdso_gettimeofday+84>: mov    edx,DWORD PTR [ebx+edi*1+0x24]
   0xf77e9b38 <__vdso_gettimeofday+88>: cmp    ecx,0x1
   0xf77e9b3b <__vdso_gettimeofday+91>: mov    DWORD PTR [ebp-0x28],eax
   0xf77e9b3e <__vdso_gettimeofday+94>: mov    DWORD PTR [ebp-0x24],edx
   0xf77e9b41 <__vdso_gettimeofday+97>: je     0xf77e9beb <__vdso_gettimeofday+267>
   0xf77e9b47 <__vdso_gettimeofday+103>:        xor    eax,eax
   0xf77e9b49 <__vdso_gettimeofday+105>:        xor    edx,edx
   0xf77e9b4b <__vdso_gettimeofday+107>:        cmp    ecx,0x2
   0xf77e9b4e <__vdso_gettimeofday+110>:        je     0xf77e9c14 <__vdso_gettimeofday+308>
   0xf77e9b54 <__vdso_gettimeofday+116>:        mov    ecx,DWORD PTR [ebx+edi*1+0x1c]
   0xf77e9b58 <__vdso_gettimeofday+120>:        mov    esi,DWORD PTR [ebp-0x1c]
   0xf77e9b5b <__vdso_gettimeofday+123>:        cmp    esi,DWORD PTR [ebx+edi*1]
   0xf77e9b5e <__vdso_gettimeofday+126>:        jne    0xf77e9b0b <__vdso_gettimeofday+43>
   0xf77e9b60 <__vdso_gettimeofday+128>:        add    eax,DWORD PTR [ebp-0x28]
   0xf77e9b63 <__vdso_gettimeofday+131>:        mov    esi,DWORD PTR [ebp+0x8]
   0xf77e9b66 <__vdso_gettimeofday+134>:        adc    edx,DWORD PTR [ebp-0x24]
   0xf77e9b69 <__vdso_gettimeofday+137>:        xor    ebx,ebx
   0xf77e9b6b <__vdso_gettimeofday+139>:        shrd   eax,edx,cl
   0xf77e9b6e <__vdso_gettimeofday+142>:        shr    edx,cl
   0xf77e9b70 <__vdso_gettimeofday+144>:        test   cl,0x20
   0xf77e9b73 <__vdso_gettimeofday+147>:        cmovne eax,edx
   0xf77e9b76 <__vdso_gettimeofday+150>:        cmovne edx,ebx
   0xf77e9b79 <__vdso_gettimeofday+153>:        cmp    edx,0x0
   0xf77e9b7c <__vdso_gettimeofday+156>:        jbe    0xf77e9bcc <__vdso_gettimeofday+236>
   0xf77e9b7e <__vdso_gettimeofday+158>:        xor    ecx,ecx
   0xf77e9b80 <__vdso_gettimeofday+160>:        add    eax,0xc4653600
   0xf77e9b85 <__vdso_gettimeofday+165>:        adc    edx,0xffffffff
   0xf77e9b88 <__vdso_gettimeofday+168>:        add    ecx,0x1
   0xf77e9b8b <__vdso_gettimeofday+171>:        cmp    edx,0x0
   0xf77e9b8e <__vdso_gettimeofday+174>:        ja     0xf77e9b80 <__vdso_gettimeofday+160>
   0xf77e9b90 <__vdso_gettimeofday+176>:        cmp    eax,0x3b9ac9ff
   0xf77e9b95 <__vdso_gettimeofday+181>:        ja     0xf77e9b80 <__vdso_gettimeofday+160>
   0xf77e9b97 <__vdso_gettimeofday+183>:        mov    ebx,DWORD PTR [ebp-0x14]
   0xf77e9b9a <__vdso_gettimeofday+186>:        add    DWORD PTR [esi],ecx
   0xf77e9b9c <__vdso_gettimeofday+188>:        mov    ecx,eax
   0xf77e9b9e <__vdso_gettimeofday+190>:        mov    DWORD PTR [esi+0x4],eax
   0xf77e9ba1 <__vdso_gettimeofday+193>:        test   ebx,ebx
   0xf77e9ba3 <__vdso_gettimeofday+195>:        je     0xf77e9c34 <__vdso_gettimeofday+340>
   0xf77e9ba9 <__vdso_gettimeofday+201>:        mov    edx,0x10624dd3
   0xf77e9bae <__vdso_gettimeofday+206>:        sar    ecx,0x1f
   0xf77e9bb1 <__vdso_gettimeofday+209>:        imul   edx
   0xf77e9bb3 <__vdso_gettimeofday+211>:        sar    edx,0x6
   0xf77e9bb6 <__vdso_gettimeofday+214>:        sub    edx,ecx
   0xf77e9bb8 <__vdso_gettimeofday+216>:        mov    DWORD PTR [esi+0x4],edx
   0xf77e9bbb <__vdso_gettimeofday+219>:        mov    edx,DWORD PTR [ebp+0xc]
   0xf77e9bbe <__vdso_gettimeofday+222>:        xor    eax,eax
   0xf77e9bc0 <__vdso_gettimeofday+224>:        test   edx,edx
   0xf77e9bc2 <__vdso_gettimeofday+226>:        jne    0xf77e9c1e <__vdso_gettimeofday+318>
   0xf77e9bc4 <__vdso_gettimeofday+228>:        add    esp,0x1c
   0xf77e9bc7 <__vdso_gettimeofday+231>:        pop    ebx
   0xf77e9bc8 <__vdso_gettimeofday+232>:        pop    esi
   0xf77e9bc9 <__vdso_gettimeofday+233>:        pop    edi
   0xf77e9bca <__vdso_gettimeofday+234>:        pop    ebp
   0xf77e9bcb <__vdso_gettimeofday+235>:        ret
   0xf77e9bcc <__vdso_gettimeofday+236>:        xor    ecx,ecx
   0xf77e9bce <__vdso_gettimeofday+238>:        cmp    eax,0x3b9ac9ff
   0xf77e9bd3 <__vdso_gettimeofday+243>:        jbe    0xf77e9b97 <__vdso_gettimeofday+183>
   0xf77e9bd5 <__vdso_gettimeofday+245>:        jmp    0xf77e9b7e <__vdso_gettimeofday+158>
   0xf77e9bd7 <__vdso_gettimeofday+247>:        pause
   0xf77e9bd9 <__vdso_gettimeofday+249>:        mov    eax,DWORD PTR [edi-0x22c4]
   0xf77e9bdf <__vdso_gettimeofday+255>:        test   al,0x1
   0xf77e9be1 <__vdso_gettimeofday+257>:        jne    0xf77e9bd7 <__vdso_gettimeofday+247>
   0xf77e9be3 <__vdso_gettimeofday+259>:        mov    DWORD PTR [ebp-0x1c],eax
   0xf77e9be6 <__vdso_gettimeofday+262>:        jmp    0xf77e9b1c <__vdso_gettimeofday+60>
   0xf77e9beb <__vdso_gettimeofday+267>:        call   0xf77e96f0
   0xf77e9bf0 <__vdso_gettimeofday+272>:        sub    eax,DWORD PTR [ebx+edi*1+0x8]
   0xf77e9bf4 <__vdso_gettimeofday+276>:        mov    esi,DWORD PTR [ebx+edi*1+0x10]
   0xf77e9bf8 <__vdso_gettimeofday+280>:        sbb    edx,DWORD PTR [ebx+edi*1+0xc]
   0xf77e9bfc <__vdso_gettimeofday+284>:        mov    ecx,DWORD PTR [ebx+edi*1+0x14]
   0xf77e9c00 <__vdso_gettimeofday+288>:        and    esi,eax
   0xf77e9c02 <__vdso_gettimeofday+290>:        mov    eax,DWORD PTR [ebx+edi*1+0x18]
   0xf77e9c06 <__vdso_gettimeofday+294>:        and    ecx,edx
   0xf77e9c08 <__vdso_gettimeofday+296>:        imul   ecx,eax
   0xf77e9c0b <__vdso_gettimeofday+299>:        mul    esi
   0xf77e9c0d <__vdso_gettimeofday+301>:        add    edx,ecx
   0xf77e9c0f <__vdso_gettimeofday+303>:        jmp    0xf77e9b54 <__vdso_gettimeofday+116>
   0xf77e9c14 <__vdso_gettimeofday+308>:        mov    eax,DWORD PTR [ebp-0x20]
   0xf77e9c17 <__vdso_gettimeofday+311>:        call   0xf77e9730
   0xf77e9c1c <__vdso_gettimeofday+316>:        jmp    0xf77e9bf0 <__vdso_gettimeofday+272>
   0xf77e9c1e <__vdso_gettimeofday+318>:        mov    edx,DWORD PTR [edi-0x2264]
   0xf77e9c24 <__vdso_gettimeofday+324>:        mov    ebx,DWORD PTR [ebp+0xc]
   0xf77e9c27 <__vdso_gettimeofday+327>:        mov    DWORD PTR [ebx],edx
   0xf77e9c29 <__vdso_gettimeofday+329>:        mov    edx,DWORD PTR [edi-0x2260]
   0xf77e9c2f <__vdso_gettimeofday+335>:        mov    DWORD PTR [ebx+0x4],edx
   0xf77e9c32 <__vdso_gettimeofday+338>:        jmp    0xf77e9bc4 <__vdso_gettimeofday+228>
   0xf77e9c34 <__vdso_gettimeofday+340>:        mov    eax,0x4e
   0xf77e9c39 <__vdso_gettimeofday+345>:        mov    ecx,DWORD PTR [ebp+0xc]
   0xf77e9c3c <__vdso_gettimeofday+348>:        mov    edx,ebx
   0xf77e9c3e <__vdso_gettimeofday+350>:        mov    ebx,esi
   0xf77e9c40 <__vdso_gettimeofday+352>:        call   0xf77e9c90 <__kernel_vsyscall>
   0xf77e9c45 <__vdso_gettimeofday+357>:        mov    ebx,edx
   0xf77e9c47 <__vdso_gettimeofday+359>:        jmp    0xf77e9bc4 <__vdso_gettimeofday+228>
   0xf77e9c4c:  lea    esi,[esi+eiz*1+0x0]
   0xf77e9c50 <__vdso_time>:    push   ebp
   0xf77e9c51 <__vdso_time+1>:  call   0xf77e9c78
   0xf77e9c56 <__vdso_time+6>:  add    eax,0xfffff6ee
   0xf77e9c5b <__vdso_time+11>: mov    ebp,esp
   0xf77e9c5d <__vdso_time+13>: push   ebx
   0xf77e9c5e <__vdso_time+14>: mov    edx,DWORD PTR [ebp+0x8]
   0xf77e9c61 <__vdso_time+17>: mov    ecx,DWORD PTR [eax-0x229c]
   0xf77e9c67 <__vdso_time+23>: mov    ebx,DWORD PTR [eax-0x2298]
   0xf77e9c6d <__vdso_time+29>: test   edx,edx
   0xf77e9c6f <__vdso_time+31>: mov    eax,ecx
   0xf77e9c71 <__vdso_time+33>: je     0xf77e9c75 <__vdso_time+37>
   0xf77e9c73 <__vdso_time+35>: mov    DWORD PTR [edx],ecx
   0xf77e9c75 <__vdso_time+37>: pop    ebx
   0xf77e9c76 <__vdso_time+38>: pop    ebp
   0xf77e9c77 <__vdso_time+39>: ret
   0xf77e9c78:  mov    eax,DWORD PTR [esp]
   0xf77e9c7b:  ret
   0xf77e9c7c:  mov    ecx,DWORD PTR [esp]
   0xf77e9c7f:  ret
   0xf77e9c80:  mov    edi,DWORD PTR [esp]
   0xf77e9c83:  ret
   0xf77e9c84:  nop
   0xf77e9c85:  nop
   0xf77e9c86:  nop
   0xf77e9c87:  nop
   0xf77e9c88:  nop
   0xf77e9c89:  nop
   0xf77e9c8a:  nop
   0xf77e9c8b:  nop
   0xf77e9c8c:  nop
   0xf77e9c8d:  nop
   0xf77e9c8e:  nop
   0xf77e9c8f:  nop
   0xf77e9c90 <__kernel_vsyscall>:      push   ecx
   0xf77e9c91 <__kernel_vsyscall+1>:    push   edx
   0xf77e9c92 <__kernel_vsyscall+2>:    push   ebp
   0xf77e9c93 <__kernel_vsyscall+3>:    mov    ebp,esp
   0xf77e9c95 <__kernel_vsyscall+5>:    sysenter
   0xf77e9c97 <__kernel_vsyscall+7>:    int    0x80
   0xf77e9c99 <__kernel_vsyscall+9>:    pop    ebp
   0xf77e9c9a <__kernel_vsyscall+10>:   pop    edx
   0xf77e9c9b <__kernel_vsyscall+11>:   pop    ecx
   0xf77e9c9c <__kernel_vsyscall+12>:   ret
   0xf77e9c9d:  nop
   0xf77e9c9e:  nop
   0xf77e9c9f:  nop
   0xf77e9ca0:  nop
   0xf77e9ca1:  jmp    0xf77e9cb0 <__kernel_sigreturn>
   0xf77e9ca3:  nop
   0xf77e9ca4:  nop
   0xf77e9ca5:  nop
   0xf77e9ca6:  nop
   0xf77e9ca7:  nop
   0xf77e9ca8:  nop
   0xf77e9ca9:  nop
   0xf77e9caa:  nop
   0xf77e9cab:  nop
   0xf77e9cac:  nop
   0xf77e9cad:  nop
   0xf77e9cae:  nop
   0xf77e9caf:  nop
   0xf77e9cb0 <__kernel_sigreturn>:     pop    eax
   0xf77e9cb1 <__kernel_sigreturn+1>:   mov    eax,0x77
   0xf77e9cb6 <__kernel_sigreturn+6>:   int    0x80
   0xf77e9cb8 <__kernel_sigreturn+8>:   nop
   0xf77e9cb9:  lea    esi,[esi+eiz*1+0x0]
   0xf77e9cc0 <__kernel_rt_sigreturn>:  mov    eax,0xad
   0xf77e9cc5 <__kernel_rt_sigreturn+5>:        int    0x80
   0xf77e9cc7 <__kernel_rt_sigreturn+7>:        nop
   0xf77e9cc8:  cmp    dl,bh
   0xf77e9cca:  (bad)
   0xf77e9ccb:  dec    DWORD PTR [edx+0x0]
   0xf77e9cce:  add    BYTE PTR [eax],al
   0xf77e9cd0:  jno    0xf77e9cd2
   0xf77e9cd2:  add    eax,DWORD PTR [ebx]
   0xf77e9cd4:  add    ebp,DWORD PTR [ebx]
   0xf77e9cd6:  cli
   0xf77e9cd7:  (bad)
   0xf77e9cd8:  inc    DWORD PTR [eax+0x0]
   0xf77e9cdb:  add    BYTE PTR [eax],al
   0xf77e9cdd:  jb     0xf77e9cdf
   0xf77e9cdf:  add    eax,DWORD PTR [ebx]
   0xf77e9ce1:  add    ecx,DWORD PTR [ebp+0x36fffffa]
   0xf77e9ce7:  add    BYTE PTR [eax],al
   0xf77e9ce9:  add    BYTE PTR [ecx+0x0],dh
   0xf77e9cec:  add    eax,DWORD PTR [ebx]
   0xf77e9cee:  add    eax,DWORD PTR [eax+0x2cfffffa]
   0xf77e9cf4:  add    BYTE PTR [eax],al
   0xf77e9cf6:  add    BYTE PTR [edx+0x0],dh
   0xf77e9cf9:  add    eax,DWORD PTR [ebx]
   0xf77e9cfb:  add    edx,DWORD PTR [edi+0x22ffffff]
   0xf77e9d01:  add    BYTE PTR [eax],al
   0xf77e9d03:  add    BYTE PTR [edi+0x0],ch
   0xf77e9d06:  add    al,0x4
   0xf77e9d08:  add    al,0x8a
   0xf77e9d0a:  (bad)
   0xf77e9d0b:  (bad)
   0xf77e9d0c:  call   FWORD PTR [ecx]
   0xf77e9d0e:  add    BYTE PTR [eax],al
   0xf77e9d10:  add    BYTE PTR [esi+0x0],ch
   0xf77e9d13:  add    al,0x4
   0xf77e9d15:  add    al,0xf
   0xf77e9d17:  scas   al,BYTE PTR es:[edi]
   0xf77e9d18:  lock lfence
   0xf77e9d1c:  mfence
   0xf77e9d1f:  lfence
   0xf77e9d22:  mov    ebp,esp
   0xf77e9d24:  sysenter
   0xf77e9d26:  mov    ebp,ecx
   0xf77e9d28:  syscall
   0xf77e9d2a:  inc    edi
   0xf77e9d2b:  inc    ebx
   0xf77e9d2c:  inc    ebx
   0xf77e9d2d:  cmp    ah,BYTE PTR [eax]
   0xf77e9d2f:  sub    BYTE PTR [ebp+0x62],dl
   0xf77e9d32:  jne    0xf77e9da2
   0xf77e9d34:  je     0xf77e9dab
   0xf77e9d36:  and    BYTE PTR [esi],dh
   0xf77e9d38:  xor    ch,BYTE PTR cs:[esi]
   0xf77e9d3b:  xor    BYTE PTR ds:0x75627535,ch
   0xf77e9d41:  outs   dx,BYTE PTR ds:[esi]
   0xf77e9d42:  je     0xf77e9db9
   0xf77e9d44:  xor    DWORD PTR [edx],esi
   0xf77e9d46:  sub    DWORD PTR [eax],esp
   0xf77e9d48:  ss xor ch,BYTE PTR cs:[esi]
   0xf77e9d4c:  xor    BYTE PTR [eax],ah
   0xf77e9d4e:  xor    dh,BYTE PTR [eax]
   0xf77e9d50:  xor    DWORD PTR [esi],esi
   0xf77e9d52:  xor    DWORD PTR [eax],esi
   0xf77e9d54:  xor    BYTE PTR ds:0x732e0000,dh
   0xf77e9d5a:  push   0x74727473
   0xf77e9d5f:  popa
   0xf77e9d60:  bound  eax,QWORD PTR [eax]
   0xf77e9d62:  outs   dx,BYTE PTR cs:[si]
   0xf77e9d65:  jne    0xf77e9d95
   0xf77e9d67:  push   0x687361
   0xf77e9d6c:  cs fs jns 0xf77e9dde
   0xf77e9d70:  jae    0xf77e9deb
   0xf77e9d72:  ins    DWORD PTR es:[edi],dx
   0xf77e9d73:  add    BYTE PTR [esi],ch
   0xf77e9d75:  fs jns 0xf77e9de6
   0xf77e9d78:  jae    0xf77e9dee
   0xf77e9d7a:  jb     0xf77e9d7c
   0xf77e9d7c:  outs   dx,BYTE PTR cs:[si]
   0xf77e9d7f:  jne    0xf77e9daf
   0xf77e9d81:  jbe    0xf77e9de8
   0xf77e9d83:  jb     0xf77e9df8
   0xf77e9d85:  imul   ebp,DWORD PTR [edi+0x6e],0x6e672e00
   0xf77e9d8c:  jne    0xf77e9dbc
   0xf77e9d8e:  jbe    0xf77e9df5
   0xf77e9d90:  jb     0xf77e9e05
   0xf77e9d92:  imul   ebp,DWORD PTR [edi+0x6e],0x2e00645f
   0xf77e9d99:  fs jns 0xf77e9e0a
   0xf77e9d9c:  popa
   0xf77e9d9d:  ins    DWORD PTR es:[edi],dx
   0xf77e9d9e:  imul   esp,DWORD PTR [ebx+0x0],0x646f722e
   0xf77e9da5:  popa
   0xf77e9da6:  je     0xf77e9e09
   0xf77e9da8:  add    BYTE PTR [esi],ch
   0xf77e9daa:  outs   dx,BYTE PTR ds:[esi]
   0xf77e9dab:  outs   dx,DWORD PTR ds:[esi]
   0xf77e9dac:  je     0xf77e9e13
   0xf77e9dae:  add    BYTE PTR [esi],ch
   0xf77e9db0:  gs push 0x6172665f
   0xf77e9db6:  ins    DWORD PTR es:[edi],dx
   0xf77e9db7:  gs pop edi
   0xf77e9db9:  push   0x2e007264
   0xf77e9dbe:  gs push 0x6172665f
   0xf77e9dc4:  ins    DWORD PTR es:[edi],dx
   0xf77e9dc5:  add    BYTE PTR gs:[esi],ch
   0xf77e9dc8:  je     0xf77e9e2f
   0xf77e9dca:  js     0xf77e9e40
   0xf77e9dcc:  add    BYTE PTR [esi],ch
   0xf77e9dce:  popa
   0xf77e9dcf:  ins    BYTE PTR es:[edi],dx
   0xf77e9dd0:  je     0xf77e9e3b
   0xf77e9dd2:  outs   dx,BYTE PTR ds:[esi]
   0xf77e9dd3:  jae    0xf77e9e49
   0xf77e9dd5:  jb     0xf77e9e4c
   0xf77e9dd7:  arpl   WORD PTR [ecx+ebp*2+0x6f],si
   0xf77e9ddb:  outs   dx,BYTE PTR ds:[esi]
   0xf77e9ddc:  jae    0xf77e9dde
   0xf77e9dde:  cs popa
   0xf77e9de0:  ins    BYTE PTR es:[edi],dx
   0xf77e9de1:  je     0xf77e9e4c
   0xf77e9de3:  outs   dx,BYTE PTR ds:[esi]
   0xf77e9de4:  jae    0xf77e9e5a
   0xf77e9de6:  jb     0xf77e9e47
   0xf77e9de8:  jb     0xf77e9e4f
   0xf77e9dea:  jo     0xf77e9e58
   0xf77e9dec:  popa
   0xf77e9ded:  arpl   WORD PTR [ebp+0x6d],sp
   0xf77e9df0:  outs   dx,BYTE PTR gs:[esi]
   0xf77e9df2:  je     0xf77e9df4
   0xf77e9df4:  arpl   WORD PTR cs:[edi+0x6d],bp
   0xf77e9df8:  ins    DWORD PTR es:[edi],dx
   0xf77e9df9:  outs   dx,BYTE PTR gs:[esi]
   0xf77e9dfb:  je     0xf77e9dfd
   0xf77e9dfd:  add    BYTE PTR [eax],al
   0xf77e9dff:  add    BYTE PTR [eax],al
   0xf77e9e01:  add    BYTE PTR [eax],al
   0xf77e9e03:  add    BYTE PTR [eax],al
   0xf77e9e05:  add    BYTE PTR [eax],al
   0xf77e9e07:  add    BYTE PTR [eax],al
   0xf77e9e09:  add    BYTE PTR [eax],al
   0xf77e9e0b:  add    BYTE PTR [eax],al
   0xf77e9e0d:  add    BYTE PTR [eax],al
   0xf77e9e0f:  add    BYTE PTR [eax],al
   0xf77e9e11:  add    BYTE PTR [eax],al
   0xf77e9e13:  add    BYTE PTR [eax],al
   0xf77e9e15:  add    BYTE PTR [eax],al
   0xf77e9e17:  add    BYTE PTR [eax],al
   0xf77e9e19:  add    BYTE PTR [eax],al
   0xf77e9e1b:  add    BYTE PTR [eax],al
   0xf77e9e1d:  add    BYTE PTR [eax],al
   0xf77e9e1f:  add    BYTE PTR [eax],al
   0xf77e9e21:  add    BYTE PTR [eax],al
   0xf77e9e23:  add    BYTE PTR [eax],al
   0xf77e9e25:  add    BYTE PTR [eax],al
   0xf77e9e27:  add    BYTE PTR [edi],cl
   0xf77e9e29:  add    BYTE PTR [eax],al
   0xf77e9e2b:  add    BYTE PTR ds:0x2000000,al
   0xf77e9e31:  add    BYTE PTR [eax],al
   0xf77e9e33:  add    BYTE PTR [eax+eax*1+0xb40000],dh
   0xf77e9e3a:  add    BYTE PTR [eax],al
   0xf77e9e3c:  cmp    BYTE PTR [eax],al
   0xf77e9e3e:  add    BYTE PTR [eax],al
   0xf77e9e40:  add    eax,DWORD PTR [eax]
   0xf77e9e42:  add    BYTE PTR [eax],al
   0xf77e9e44:  add    BYTE PTR [eax],al
   0xf77e9e46:  add    BYTE PTR [eax],al
   0xf77e9e48:  add    al,0x0
   0xf77e9e4a:  add    BYTE PTR [eax],al
   0xf77e9e4c:  add    al,0x0
   0xf77e9e4e:  add    BYTE PTR [eax],al
   0xf77e9e50:  or     eax,DWORD PTR [eax]
   0xf77e9e52:  add    BYTE PTR [eax],al
   0xf77e9e54:  idiv   bh
   0xf77e9e56:  jmp    FWORD PTR [edi+0x2]
   0xf77e9e59:  add    BYTE PTR [eax],al
   0xf77e9e5b:  add    ah,ch
   0xf77e9e5d:  add    BYTE PTR [eax],al
   0xf77e9e5f:  add    ah,ch
   0xf77e9e61:  add    BYTE PTR [eax],al
   0xf77e9e63:  add    BYTE PTR [eax+eax*1+0x0],al
   0xf77e9e67:  add    BYTE PTR [ebx],al
   0xf77e9e69:  add    BYTE PTR [eax],al
   0xf77e9e6b:  add    BYTE PTR [eax],al
   0xf77e9e6d:  add    BYTE PTR [eax],al
   0xf77e9e6f:  add    BYTE PTR [eax+eax*1],al
   0xf77e9e72:  add    BYTE PTR [eax],al
   0xf77e9e74:  add    al,0x0
   0xf77e9e76:  add    BYTE PTR [eax],al
   0xf77e9e78:  adc    eax,0xb000000
   0xf77e9e7d:  add    BYTE PTR [eax],al
   0xf77e9e7f:  add    BYTE PTR [edx],al
   0xf77e9e81:  add    BYTE PTR [eax],al
   0xf77e9e83:  add    BYTE PTR [eax],dh
   0xf77e9e85:  add    DWORD PTR [eax],eax
   0xf77e9e87:  add    BYTE PTR [eax],dh
   0xf77e9e89:  add    DWORD PTR [eax],eax
   0xf77e9e8b:  add    BYTE PTR [eax+0x4000000],dl
   0xf77e9e91:  add    BYTE PTR [eax],al
   0xf77e9e93:  add    BYTE PTR [ecx],al
   0xf77e9e95:  add    BYTE PTR [eax],al
   0xf77e9e97:  add    BYTE PTR [eax+eax*1],al
   0xf77e9e9a:  add    BYTE PTR [eax],al
   0xf77e9e9c:  adc    BYTE PTR [eax],al
   0xf77e9e9e:  add    BYTE PTR [eax],al
   0xf77e9ea0:  sbb    eax,0x3000000
   0xf77e9ea5:  add    BYTE PTR [eax],al
   0xf77e9ea7:  add    BYTE PTR [edx],al
   0xf77e9ea9:  add    BYTE PTR [eax],al
   0xf77e9eab:  add    al,al
   0xf77e9ead:  add    DWORD PTR [eax],eax
   0xf77e9eaf:  add    al,al
   0xf77e9eb1:  add    DWORD PTR [eax],eax
   0xf77e9eb3:  add    BYTE PTR [ebp+0x0],dl
   0xf77e9eb9:  add    BYTE PTR [eax],al
   0xf77e9ebb:  add    BYTE PTR [eax],al
   0xf77e9ebd:  add    BYTE PTR [eax],al
   0xf77e9ebf:  add    BYTE PTR [ecx],al
   0xf77e9ec1:  add    BYTE PTR [eax],al
   0xf77e9ec3:  add    BYTE PTR [eax],al
   0xf77e9ec5:  add    BYTE PTR [eax],al
   0xf77e9ec7:  add    BYTE PTR ds:0xff000000,ah
   0xf77e9ecd:  (bad)
   0xf77e9ece:  jmp    FWORD PTR [edi+0x2]
   0xf77e9ed1:  add    BYTE PTR [eax],al
   0xf77e9ed3:  add    BYTE PTR [esi+0x2],dl
   0xf77e9ed6:  add    BYTE PTR [eax],al
   0xf77e9ed8:  push   esi
   0xf77e9ed9:  add    al,BYTE PTR [eax]
   0xf77e9edb:  add    BYTE PTR [edx],dl
   0xf77e9edd:  add    BYTE PTR [eax],al
   0xf77e9edf:  add    BYTE PTR [ebx],al
   0xf77e9ee1:  add    BYTE PTR [eax],al
   0xf77e9ee3:  add    BYTE PTR [eax],al
   0xf77e9ee5:  add    BYTE PTR [eax],al
   0xf77e9ee7:  add    BYTE PTR [edx],al
   0xf77e9ee9:  add    BYTE PTR [eax],al
   0xf77e9eeb:  add    BYTE PTR [edx],al
   0xf77e9eed:  add    BYTE PTR [eax],al
   0xf77e9eef:  add    BYTE PTR [edx],dh
   0xf77e9ef1:  add    BYTE PTR [eax],al
   0xf77e9ef3:  add    ch,bh
   0xf77e9ef5:
(bad)
   0xf77e9ef6:  jmp    FWORD PTR [edi+0x2]
   0xf77e9ef9:  add    BYTE PTR [eax],al
   0xf77e9efb:  add    BYTE PTR [eax+0x2],ch
   0xf77e9efe:  add    BYTE PTR [eax],al
   0xf77e9f00:  push   0x54000002
   0xf77e9f05:  add    BYTE PTR [eax],al
   0xf77e9f07:  add    BYTE PTR [eax+eax*1],al
   0xf77e9f0a:  add    BYTE PTR [eax],al
   0xf77e9f0c:  add    eax,DWORD PTR [eax]
   0xf77e9f0e:  add    BYTE PTR [eax],al
   0xf77e9f10:  add    al,0x0
   0xf77e9f12:  add    BYTE PTR [eax],al
   0xf77e9f14:  add    BYTE PTR [eax],al
   0xf77e9f16:  add    BYTE PTR [eax],al
   0xf77e9f18:  inc    ecx
   0xf77e9f19:  add    BYTE PTR [eax],al
   0xf77e9f1b:  add    BYTE PTR [esi],al
   0xf77e9f1d:  add    BYTE PTR [eax],al
   0xf77e9f1f:  add    BYTE PTR [ebx],al
   0xf77e9f21:  add    BYTE PTR [eax],al
   0xf77e9f23:  add    BYTE PTR [edx+eax*1+0x2bc0000],bh
   0xf77e9f2a:  add    BYTE PTR [eax],al
   0xf77e9f2c:  mov    BYTE PTR [eax],al
   0xf77e9f2e:  add    BYTE PTR [eax],al
   0xf77e9f30:  add    al,0x0
   0xf77e9f32:  add    BYTE PTR [eax],al
   0xf77e9f34:  add    BYTE PTR [eax],al
   0xf77e9f36:  add    BYTE PTR [eax],al
   0xf77e9f38:  add    al,0x0
   0xf77e9f3a:  add    BYTE PTR [eax],al
   0xf77e9f3c:  or     BYTE PTR [eax],al
   0xf77e9f3e:  add    BYTE PTR [eax],al
   0xf77e9f40:  dec    edx
   0xf77e9f41:  add    BYTE PTR [eax],al
   0xf77e9f43:  add    BYTE PTR [ecx],al
   0xf77e9f45:  add    BYTE PTR [eax],al
   0xf77e9f47:  add    BYTE PTR [ebx],al
   0xf77e9f49:  add    BYTE PTR [eax],al
   0xf77e9f4b:  add    BYTE PTR [ebx+eax*1+0x0],al
   0xf77e9f4f:  add    BYTE PTR [ebx+eax*1+0x0],al
   0xf77e9f53:  add    BYTE PTR [edx+eax*1],dl
   0xf77e9f56:  add    BYTE PTR [eax],al
   0xf77e9f58:  add    BYTE PTR [eax],al
   0xf77e9f5a:  add    BYTE PTR [eax],al
   0xf77e9f5c:  add    BYTE PTR [eax],al
   0xf77e9f5e:  add    BYTE PTR [eax],al
   0xf77e9f60:  add    al,0x0
   0xf77e9f62:  add    BYTE PTR [eax],al
   0xf77e9f64:  add    al,0x0
   0xf77e9f66:  add    BYTE PTR [eax],al
   0xf77e9f68:  push   edx
   0xf77e9f69:  add    BYTE PTR [eax],al
   0xf77e9f6b:  add    BYTE PTR [edi],al
   0xf77e9f6d:  add    BYTE PTR [eax],al
   0xf77e9f6f:  add    BYTE PTR [edx],al
   0xf77e9f71:  add    BYTE PTR [eax],al
   0xf77e9f73:  add    BYTE PTR [eax+0x5],bl
   0xf77e9f76:  add    BYTE PTR [eax],al
   0xf77e9f78:  pop    eax
   0xf77e9f79:  add    eax,0x600000
   0xf77e9f7e:  add    BYTE PTR [eax],al
   0xf77e9f80:  add    BYTE PTR [eax],al
   0xf77e9f82:  add    BYTE PTR [eax],al
   0xf77e9f84:  add    BYTE PTR [eax],al
   0xf77e9f86:  add    BYTE PTR [eax],al
   0xf77e9f88:  add    al,0x0
   0xf77e9f8a:  add    BYTE PTR [eax],al
   0xf77e9f8c:  add    BYTE PTR [eax],al
   0xf77e9f8e:  add    BYTE PTR [eax],al
   0xf77e9f90:  pop    eax
   0xf77e9f91:  add    BYTE PTR [eax],al
   0xf77e9f93:  add    BYTE PTR [ecx],al
   0xf77e9f95:  add    BYTE PTR [eax],al
   0xf77e9f97:  add    BYTE PTR [edx],al
   0xf77e9f99:  add    BYTE PTR [eax],al
   0xf77e9f9b:  add    BYTE PTR [eax-0x47fffffb],bh
   0xf77e9fa1:  add    eax,0x240000
   0xf77e9fa6:  add    BYTE PTR [eax],al
   0xf77e9fa8:  add    BYTE PTR [eax],al
   0xf77e9faa:  add    BYTE PTR [eax],al
   0xf77e9fac:  add    BYTE PTR [eax],al
   0xf77e9fae:  add    BYTE PTR [eax],al
   0xf77e9fb0:  add    al,0x0
   0xf77e9fb2:  add    BYTE PTR [eax],al
   0xf77e9fb4:  add    BYTE PTR [eax],al
   0xf77e9fb6:  add    BYTE PTR [eax],al
   0xf77e9fb8:  data16 add BYTE PTR [eax],al
   0xf77e9fbb:  add    BYTE PTR [ecx],al
   0xf77e9fbd:  add    BYTE PTR [eax],al
   0xf77e9fbf:  add    BYTE PTR [edx],al
   0xf77e9fc1:  add    BYTE PTR [eax],al
   0xf77e9fc3:  add    ah,bl
   0xf77e9fc5:  add    eax,0x5dc0000
   0xf77e9fca:  add    BYTE PTR [eax],al
   0xf77e9fcc:  or     al,0x1
   0xf77e9fce:  add    BYTE PTR [eax],al
   0xf77e9fd0:  add    BYTE PTR [eax],al
   0xf77e9fd2:  add    BYTE PTR [eax],al
   0xf77e9fd4:  add    BYTE PTR [eax],al
   0xf77e9fd6:  add    BYTE PTR [eax],al
   0xf77e9fd8:  add    al,0x0
   0xf77e9fda:  add    BYTE PTR [eax],al
   0xf77e9fdc:  add    BYTE PTR [eax],al
   0xf77e9fde:  add    BYTE PTR [eax],al
   0xf77e9fe0:  jo     0xf77e9fe2
   0xf77e9fe2:  add    BYTE PTR [eax],al
   0xf77e9fe4:  add    DWORD PTR [eax],eax
   0xf77e9fe6:  add    BYTE PTR [eax],al
   0xf77e9fe8:  push   es
   0xf77e9fe9:  add    BYTE PTR [eax],al
   0xf77e9feb:  add    al,dh
   0xf77e9fed:  push   es
   0xf77e9fee:  add    BYTE PTR [eax],al
   0xf77e9ff0:  lock push es
   0xf77e9ff2:  add    BYTE PTR [eax],al
   0xf77e9ff4:  fadd   DWORD PTR ds:0x0
   0xf77e9ffa:  add    BYTE PTR [eax],al
   0xf77e9ffc:  add    BYTE PTR [eax],al
   0xf77e9ffe:  add    BYTE PTR [eax],al
   0xf77ea000:  adc    BYTE PTR [eax],al
   0xf77ea002:  add    BYTE PTR [eax],al
   0xf77ea004:  add    BYTE PTR [eax],al
   0xf77ea006:  add    BYTE PTR [eax],al
   0xf77ea008:  jbe    0xf77ea00a
   0xf77ea00a:  add    BYTE PTR [eax],al
   0xf77ea00c:  add    DWORD PTR [eax],eax
   0xf77ea00e:  add    BYTE PTR [eax],al
   0xf77ea010:  add    al,BYTE PTR [eax]
   0xf77ea012:  add    BYTE PTR [eax],al
   0xf77ea014:  enter  0xc,0x0
   0xf77ea018:  enter  0xc,0x0
   0xf77ea01c:  dec    esi
   0xf77ea01d:  add    BYTE PTR [eax],al
   0xf77ea01f:  add    BYTE PTR [eax],al
   0xf77ea021:  add    BYTE PTR [eax],al
   0xf77ea023:  add    BYTE PTR [eax],al
   0xf77ea025:  add    BYTE PTR [eax],al
   0xf77ea027:  add    BYTE PTR [ecx],al
   0xf77ea029:  add    BYTE PTR [eax],al
   0xf77ea02b:  add    BYTE PTR [eax],al
   0xf77ea02d:  add    BYTE PTR [eax],al
   0xf77ea02f:  add    BYTE PTR [edi+0x1000000],al
   0xf77ea035:  add    BYTE PTR [eax],al
   0xf77ea037:  add    BYTE PTR [esi],al
   0xf77ea039:  add    BYTE PTR [eax],al
   0xf77ea03b:  add    BYTE PTR [esi],dl
   0xf77ea03d:  or     eax,0xd160000
   0xf77ea042:  add    BYTE PTR [eax],al
   0xf77ea044:  adc    al,0x0
   0xf77ea046:  add    BYTE PTR [eax],al
   0xf77ea048:  add    BYTE PTR [eax],al
   0xf77ea04a:  add    BYTE PTR [eax],al
   0xf77ea04c:  add    BYTE PTR [eax],al
   0xf77ea04e:  add    BYTE PTR [eax],al
   0xf77ea050:  add    DWORD PTR [eax],eax
   0xf77ea052:  add    BYTE PTR [eax],al
   0xf77ea054:  add    BYTE PTR [eax],al
   0xf77ea056:  add    BYTE PTR [eax],al
   0xf77ea058:  popf
   0xf77ea059:  add    BYTE PTR [eax],al
   0xf77ea05b:  add    BYTE PTR [ecx],al
   0xf77ea05d:  add    BYTE PTR [eax],al
   0xf77ea05f:  add    BYTE PTR [eax],dh
   0xf77ea061:  add    BYTE PTR [eax],al
   0xf77ea063:  add    BYTE PTR [eax],al
   0xf77ea065:  add    BYTE PTR [eax],al
   0xf77ea067:  add    BYTE PTR [edx],ch
   0xf77ea069:  or     eax,0x2d0000
   0xf77ea06e:  add    BYTE PTR [eax],al
   0xf77ea070:  add    BYTE PTR [eax],al
   0xf77ea072:  add    BYTE PTR [eax],al
   0xf77ea074:  add    BYTE PTR [eax],al
   0xf77ea076:  add    BYTE PTR [eax],al
   0xf77ea078:  add    DWORD PTR [eax],eax
   0xf77ea07a:  add    BYTE PTR [eax],al
   0xf77ea07c:  add    DWORD PTR [eax],eax
   0xf77ea07e:  add    BYTE PTR [eax],al
   0xf77ea080:  add    DWORD PTR [eax],eax
   0xf77ea082:  add    BYTE PTR [eax],al
   0xf77ea084:  add    eax,DWORD PTR [eax]
   0xf77ea086:  add    BYTE PTR [eax],al
   0xf77ea088:  add    BYTE PTR [eax],al
   0xf77ea08a:  add    BYTE PTR [eax],al
   0xf77ea08c:  add    BYTE PTR [eax],al
   0xf77ea08e:  add    BYTE PTR [eax],al
   0xf77ea090:  push   edi
   0xf77ea091:  or     eax,0xa60000
   0xf77ea096:  add    BYTE PTR [eax],al
   0xf77ea098:  add    BYTE PTR [eax],al
   0xf77ea09a:  add    BYTE PTR [eax],al
   0xf77ea09c:  add    BYTE PTR [eax],al
   0xf77ea09e:  add    BYTE PTR [eax],al
   0xf77ea0a0:  add    DWORD PTR [eax],eax
   0xf77ea0a2:  add    BYTE PTR [eax],al
   0xf77ea0a4:  add    BYTE PTR [eax],al
   0xf77ea0a6:  add    BYTE PTR [eax],al
   0xf77ea0a8:  add    BYTE PTR [eax],al
   0xf77ea0aa:  add    BYTE PTR [eax],al
   0xf77ea0ac:  add    BYTE PTR [eax],al
   0xf77ea0ae:  add    BYTE PTR [eax],al
   0xf77ea0b0:  add    BYTE PTR [eax],al
   0xf77ea0b2:  add    BYTE PTR [eax],al
   0xf77ea0b4:  add    BYTE PTR [eax],al
   0xf77ea0b6:  add    BYTE PTR [eax],al
   0xf77ea0b8:  add    BYTE PTR [eax],al
   0xf77ea0ba:  add    BYTE PTR [eax],al
   0xf77ea0bc:  add    BYTE PTR [eax],al
   0xf77ea0be:  add    BYTE PTR [eax],al
   0xf77ea0c0:  add    BYTE PTR [eax],al
   0xf77ea0c2:  add    BYTE PTR [eax],al
   0xf77ea0c4:  add    BYTE PTR [eax],al
   0xf77ea0c6:  add    BYTE PTR [eax],al
   0xf77ea0c8:  add    BYTE PTR [eax],al
   0xf77ea0ca:  add    BYTE PTR [eax],al
   0xf77ea0cc:  add    BYTE PTR [eax],al
   0xf77ea0ce:  add    BYTE PTR [eax],al
   0xf77ea0d0:  add    BYTE PTR [eax],al
   0xf77ea0d2:  add    BYTE PTR [eax],al
   0xf77ea0d4:  add    BYTE PTR [eax],al
   0xf77ea0d6:  add    BYTE PTR [eax],al
   0xf77ea0d8:  add    BYTE PTR [eax],al
   0xf77ea0da:  add    BYTE PTR [eax],al
   0xf77ea0dc:  add    BYTE PTR [eax],al
   0xf77ea0de:  add    BYTE PTR [eax],al
   0xf77ea0e0:  add    BYTE PTR [eax],al
   0xf77ea0e2:  add    BYTE PTR [eax],al
   0xf77ea0e4:  add    BYTE PTR [eax],al
   0xf77ea0e6:  add    BYTE PTR [eax],al
   0xf77ea0e8:  add    BYTE PTR [eax],al
   0xf77ea0ea:  add    BYTE PTR [eax],al
   0xf77ea0ec:  add    BYTE PTR [eax],al
   0xf77ea0ee:  add    BYTE PTR [eax],al
   0xf77ea0f0:  add    BYTE PTR [eax],al
   0xf77ea0f2:  add    BYTE PTR [eax],al
   0xf77ea0f4:  add    BYTE PTR [eax],al
   0xf77ea0f6:  add    BYTE PTR [eax],al
   0xf77ea0f8:  add    BYTE PTR [eax],al
   0xf77ea0fa:  add    BYTE PTR [eax],al
   0xf77ea0fc:  add    BYTE PTR [eax],al
   0xf77ea0fe:  add    BYTE PTR [eax],al
   0xf77ea100:  add    BYTE PTR [eax],al
   0xf77ea102:  add    BYTE PTR [eax],al
   0xf77ea104:  add    BYTE PTR [eax],al
   0xf77ea106:  add    BYTE PTR [eax],al
   0xf77ea108:  add    BYTE PTR [eax],al
   0xf77ea10a:  add    BYTE PTR [eax],al
   0xf77ea10c:  add    BYTE PTR [eax],al
   0xf77ea10e:  add    BYTE PTR [eax],al
   0xf77ea110:  add    BYTE PTR [eax],al
   0xf77ea112:  add    BYTE PTR [eax],al
   0xf77ea114:  add    BYTE PTR [eax],al
   0xf77ea116:  add    BYTE PTR [eax],al
   0xf77ea118:  add    BYTE PTR [eax],al
   0xf77ea11a:  add    BYTE PTR [eax],al
   0xf77ea11c:  add    BYTE PTR [eax],al
   0xf77ea11e:  add    BYTE PTR [eax],al
   0xf77ea120:  add    BYTE PTR [eax],al
   0xf77ea122:  add    BYTE PTR [eax],al
   0xf77ea124:  add    BYTE PTR [eax],al
   0xf77ea126:  add    BYTE PTR [eax],al
   0xf77ea128:  add    BYTE PTR [eax],al
   0xf77ea12a:  add    BYTE PTR [eax],al
   0xf77ea12c:  add    BYTE PTR [eax],al
   0xf77ea12e:  add    BYTE PTR [eax],al
   0xf77ea130:  add    BYTE PTR [eax],al
   0xf77ea132:  add    BYTE PTR [eax],al
   0xf77ea134:  add    BYTE PTR [eax],al
   0xf77ea136:  add    BYTE PTR [eax],al
   0xf77ea138:  add    BYTE PTR [eax],al
   0xf77ea13a:  add    BYTE PTR [eax],al
   0xf77ea13c:  add    BYTE PTR [eax],al
   0xf77ea13e:  add    BYTE PTR [eax],al
   0xf77ea140:  add    BYTE PTR [eax],al
   0xf77ea142:  add    BYTE PTR [eax],al
   0xf77ea144:  add    BYTE PTR [eax],al
   0xf77ea146:  add    BYTE PTR [eax],al
   0xf77ea148:  add    BYTE PTR [eax],al
   0xf77ea14a:  add    BYTE PTR [eax],al
   0xf77ea14c:  add    BYTE PTR [eax],al
   0xf77ea14e:  add    BYTE PTR [eax],al
   0xf77ea150:  add    BYTE PTR [eax],al
   0xf77ea152:  add    BYTE PTR [eax],al
   0xf77ea154:  add    BYTE PTR [eax],al
   0xf77ea156:  add    BYTE PTR [eax],al
   0xf77ea158:  add    BYTE PTR [eax],al
   0xf77ea15a:  add    BYTE PTR [eax],al
   0xf77ea15c:  add    BYTE PTR [eax],al
   0xf77ea15e:  add    BYTE PTR [eax],al
   0xf77ea160:  add    BYTE PTR [eax],al
   0xf77ea162:  add    BYTE PTR [eax],al
   0xf77ea164:  add    BYTE PTR [eax],al
   0xf77ea166:  add    BYTE PTR [eax],al
   0xf77ea168:  add    BYTE PTR [eax],al
   0xf77ea16a:  add    BYTE PTR [eax],al
   0xf77ea16c:  add    BYTE PTR [eax],al
   0xf77ea16e:  add    BYTE PTR [eax],al
   0xf77ea170:  add    BYTE PTR [eax],al
   0xf77ea172:  add    BYTE PTR [eax],al
   0xf77ea174:  add    BYTE PTR [eax],al
   0xf77ea176:  add    BYTE PTR [eax],al
   0xf77ea178:  add    BYTE PTR [eax],al
   0xf77ea17a:  add    BYTE PTR [eax],al
   0xf77ea17c:  add    BYTE PTR [eax],al
   0xf77ea17e:  add    BYTE PTR [eax],al
   0xf77ea180:  add    BYTE PTR [eax],al
   0xf77ea182:  add    BYTE PTR [eax],al
   0xf77ea184:  add    BYTE PTR [eax],al
   0xf77ea186:  add    BYTE PTR [eax],al
   0xf77ea188:  add    BYTE PTR [eax],al
   0xf77ea18a:  add    BYTE PTR [eax],al
   0xf77ea18c:  add    BYTE PTR [eax],al
   0xf77ea18e:  add    BYTE PTR [eax],al
   0xf77ea190:  add    BYTE PTR [eax],al
   0xf77ea192:  add    BYTE PTR [eax],al
   0xf77ea194:  add    BYTE PTR [eax],al
   0xf77ea196:  add    BYTE PTR [eax],al
   0xf77ea198:  add    BYTE PTR [eax],al
   0xf77ea19a:  add    BYTE PTR [eax],al
   0xf77ea19c:  add    BYTE PTR [eax],al
   0xf77ea19e:  add    BYTE PTR [eax],al
   0xf77ea1a0:  add    BYTE PTR [eax],al
   0xf77ea1a2:  add    BYTE PTR [eax],al
   0xf77ea1a4:  add    BYTE PTR [eax],al
   0xf77ea1a6:  add    BYTE PTR [eax],al
   0xf77ea1a8:  add    BYTE PTR [eax],al
   0xf77ea1aa:  add    BYTE PTR [eax],al
   0xf77ea1ac:  add    BYTE PTR [eax],al
   0xf77ea1ae:  add    BYTE PTR [eax],al
   0xf77ea1b0:  add    BYTE PTR [eax],al
   0xf77ea1b2:  add    BYTE PTR [eax],al
   0xf77ea1b4:  add    BYTE PTR [eax],al
   0xf77ea1b6:  add    BYTE PTR [eax],al
   0xf77ea1b8:  add    BYTE PTR [eax],al
   0xf77ea1ba:  add    BYTE PTR [eax],al
   0xf77ea1bc:  add    BYTE PTR [eax],al
   0xf77ea1be:  add    BYTE PTR [eax],al
   0xf77ea1c0:  add    BYTE PTR [eax],al
   0xf77ea1c2:  add    BYTE PTR [eax],al
   0xf77ea1c4:  add    BYTE PTR [eax],al
   0xf77ea1c6:  add    BYTE PTR [eax],al
   0xf77ea1c8:  add    BYTE PTR [eax],al
   0xf77ea1ca:  add    BYTE PTR [eax],al
   0xf77ea1cc:  add    BYTE PTR [eax],al
   0xf77ea1ce:  add    BYTE PTR [eax],al
   0xf77ea1d0:  add    BYTE PTR [eax],al
   0xf77ea1d2:  add    BYTE PTR [eax],al
   0xf77ea1d4:  add    BYTE PTR [eax],al
   0xf77ea1d6:  add    BYTE PTR [eax],al
   0xf77ea1d8:  add    BYTE PTR [eax],al
   0xf77ea1da:  add    BYTE PTR [eax],al
   0xf77ea1dc:  add    BYTE PTR [eax],al
   0xf77ea1de:  add    BYTE PTR [eax],al
   0xf77ea1e0:  add    BYTE PTR [eax],al
   0xf77ea1e2:  add    BYTE PTR [eax],al
   0xf77ea1e4:  add    BYTE PTR [eax],al
   0xf77ea1e6:  add    BYTE PTR [eax],al
   0xf77ea1e8:  add    BYTE PTR [eax],al
   0xf77ea1ea:  add    BYTE PTR [eax],al
   0xf77ea1ec:  add    BYTE PTR [eax],al
   0xf77ea1ee:  add    BYTE PTR [eax],al
   0xf77ea1f0:  add    BYTE PTR [eax],al
   0xf77ea1f2:  add    BYTE PTR [eax],al
   0xf77ea1f4:  add    BYTE PTR [eax],al
   0xf77ea1f6:  add    BYTE PTR [eax],al
   0xf77ea1f8:  add    BYTE PTR [eax],al
   0xf77ea1fa:  add    BYTE PTR [eax],al
   0xf77ea1fc:  add    BYTE PTR [eax],al
   0xf77ea1fe:  add    BYTE PTR [eax],al
   0xf77ea200:  add    BYTE PTR [eax],al
   0xf77ea202:  add    BYTE PTR [eax],al
   0xf77ea204:  add    BYTE PTR [eax],al
   0xf77ea206:  add    BYTE PTR [eax],al
   0xf77ea208:  add    BYTE PTR [eax],al
   0xf77ea20a:  add    BYTE PTR [eax],al
   0xf77ea20c:  add    BYTE PTR [eax],al
   0xf77ea20e:  add    BYTE PTR [eax],al
   0xf77ea210:  add    BYTE PTR [eax],al
   0xf77ea212:  add    BYTE PTR [eax],al
   0xf77ea214:  add    BYTE PTR [eax],al
   0xf77ea216:  add    BYTE PTR [eax],al
   0xf77ea218:  add    BYTE PTR [eax],al
   0xf77ea21a:  add    BYTE PTR [eax],al
   0xf77ea21c:  add    BYTE PTR [eax],al
   0xf77ea21e:  add    BYTE PTR [eax],al
   0xf77ea220:  add    BYTE PTR [eax],al
   0xf77ea222:  add    BYTE PTR [eax],al
   0xf77ea224:  add    BYTE PTR [eax],al
   0xf77ea226:  add    BYTE PTR [eax],al
   0xf77ea228:  add    BYTE PTR [eax],al
   0xf77ea22a:  add    BYTE PTR [eax],al
   0xf77ea22c:  add    BYTE PTR [eax],al
   0xf77ea22e:  add    BYTE PTR [eax],al
   0xf77ea230:  add    BYTE PTR [eax],al
   0xf77ea232:  add    BYTE PTR [eax],al
   0xf77ea234:  add    BYTE PTR [eax],al
   0xf77ea236:  add    BYTE PTR [eax],al
   0xf77ea238:  add    BYTE PTR [eax],al
   0xf77ea23a:  add    BYTE PTR [eax],al
   0xf77ea23c:  add    BYTE PTR [eax],al
   0xf77ea23e:  add    BYTE PTR [eax],al
   0xf77ea240:  add    BYTE PTR [eax],al
   0xf77ea242:  add    BYTE PTR [eax],al
   0xf77ea244:  add    BYTE PTR [eax],al
   0xf77ea246:  add    BYTE PTR [eax],al
   0xf77ea248:  add    BYTE PTR [eax],al
   0xf77ea24a:  add    BYTE PTR [eax],al
   0xf77ea24c:  add    BYTE PTR [eax],al
   0xf77ea24e:  add    BYTE PTR [eax],al
   0xf77ea250:  add    BYTE PTR [eax],al
   0xf77ea252:  add    BYTE PTR [eax],al
   0xf77ea254:  add    BYTE PTR [eax],al
   0xf77ea256:  add    BYTE PTR [eax],al
   0xf77ea258:  add    BYTE PTR [eax],al
   0xf77ea25a:  add    BYTE PTR [eax],al
   0xf77ea25c:  add    BYTE PTR [eax],al
   0xf77ea25e:  add    BYTE PTR [eax],al
   0xf77ea260:  add    BYTE PTR [eax],al
   0xf77ea262:  add    BYTE PTR [eax],al
   0xf77ea264:  add    BYTE PTR [eax],al
   0xf77ea266:  add    BYTE PTR [eax],al
   0xf77ea268:  add    BYTE PTR [eax],al
   0xf77ea26a:  add    BYTE PTR [eax],al
   0xf77ea26c:  add    BYTE PTR [eax],al
   0xf77ea26e:  add    BYTE PTR [eax],al
   0xf77ea270:  add    BYTE PTR [eax],al
   0xf77ea272:  add    BYTE PTR [eax],al
   0xf77ea274:  add    BYTE PTR [eax],al
   0xf77ea276:  add    BYTE PTR [eax],al
   0xf77ea278:  add    BYTE PTR [eax],al
   0xf77ea27a:  add    BYTE PTR [eax],al
   0xf77ea27c:  add    BYTE PTR [eax],al
   0xf77ea27e:  add    BYTE PTR [eax],al
   0xf77ea280:  add    BYTE PTR [eax],al
   0xf77ea282:  add    BYTE PTR [eax],al
   0xf77ea284:  add    BYTE PTR [eax],al
   0xf77ea286:  add    BYTE PTR [eax],al
   0xf77ea288:  add    BYTE PTR [eax],al
   0xf77ea28a:  add    BYTE PTR [eax],al
   0xf77ea28c:  add    BYTE PTR [eax],al
   0xf77ea28e:  add    BYTE PTR [eax],al
   0xf77ea290:  add    BYTE PTR [eax],al
   0xf77ea292:  add    BYTE PTR [eax],al
   0xf77ea294:  add    BYTE PTR [eax],al
   0xf77ea296:  add    BYTE PTR [eax],al
   0xf77ea298:  add    BYTE PTR [eax],al
   0xf77ea29a:  add    BYTE PTR [eax],al
   0xf77ea29c:  add    BYTE PTR [eax],al
   0xf77ea29e:  add    BYTE PTR [eax],al
   0xf77ea2a0:  add    BYTE PTR [eax],al
   0xf77ea2a2:  add    BYTE PTR [eax],al
   0xf77ea2a4:  add    BYTE PTR [eax],al
   0xf77ea2a6:  add    BYTE PTR [eax],al
   0xf77ea2a8:  add    BYTE PTR [eax],al
   0xf77ea2aa:  add    BYTE PTR [eax],al
   0xf77ea2ac:  add    BYTE PTR [eax],al
   0xf77ea2ae:  add    BYTE PTR [eax],al
   0xf77ea2b0:  add    BYTE PTR [eax],al
   0xf77ea2b2:  add    BYTE PTR [eax],al
   0xf77ea2b4:  add    BYTE PTR [eax],al
   0xf77ea2b6:  add    BYTE PTR [eax],al
   0xf77ea2b8:  add    BYTE PTR [eax],al
   0xf77ea2ba:  add    BYTE PTR [eax],al
   0xf77ea2bc:  add    BYTE PTR [eax],al
   0xf77ea2be:  add    BYTE PTR [eax],al
   0xf77ea2c0:  add    BYTE PTR [eax],al
   0xf77ea2c2:  add    BYTE PTR [eax],al
   0xf77ea2c4:  add    BYTE PTR [eax],al
   0xf77ea2c6:  add    BYTE PTR [eax],al
   0xf77ea2c8:  add    BYTE PTR [eax],al

   0xf77ea2ca:  add    BYTE PTR [eax],al
   0xf77ea2cc:  add    BYTE PTR [eax],al
   0xf77ea2ce:  add    BYTE PTR [eax],al
   0xf77ea2d0:  add    BYTE PTR [eax],al
   0xf77ea2d2:  add    BYTE PTR [eax],al
   0xf77ea2d4:  add    BYTE PTR [eax],al
   0xf77ea2d6:  add    BYTE PTR [eax],al
   0xf77ea2d8:  add    BYTE PTR [eax],al
   0xf77ea2da:  add    BYTE PTR [eax],al
   0xf77ea2dc:  add    BYTE PTR [eax],al
   0xf77ea2de:  add    BYTE PTR [eax],al
   0xf77ea2e0:  add    BYTE PTR [eax],al
   0xf77ea2e2:  add    BYTE PTR [eax],al
   0xf77ea2e4:  add    BYTE PTR [eax],al
   0xf77ea2e6:  add    BYTE PTR [eax],al
   0xf77ea2e8:  add    BYTE PTR [eax],al
   0xf77ea2ea:  add    BYTE PTR [eax],al
   0xf77ea2ec:  add    BYTE PTR [eax],al
   0xf77ea2ee:  add    BYTE PTR [eax],al
   0xf77ea2f0:  add    BYTE PTR [eax],al
   0xf77ea2f2:  add    BYTE PTR [eax],al
   0xf77ea2f4:  add    BYTE PTR [eax],al
   0xf77ea2f6:  add    BYTE PTR [eax],al
   0xf77ea2f8:
        add    BYTE PTR [eax],al
   0xf77ea2fa:  add    BYTE PTR [eax],al
   0xf77ea2fc:  add    BYTE PTR [eax],al
   0xf77ea2fe:  add    BYTE PTR [eax],al
   0xf77ea300:  add    BYTE PTR [eax],al
   0xf77ea302:  add    BYTE PTR [eax],al
   0xf77ea304:  add    BYTE PTR [eax],al
   0xf77ea306:  add    BYTE PTR [eax],al
   0xf77ea308:  add    BYTE PTR [eax],al
   0xf77ea30a:  add    BYTE PTR [eax],al
   0xf77ea30c:  add    BYTE PTR [eax],al
   0xf77ea30e:  add    BYTE PTR [eax],al
   0xf77ea310:  add    BYTE PTR [eax],al
   0xf77ea312:  add    BYTE PTR [eax],al
   0xf77ea314:  add    BYTE PTR [eax],al
   0xf77ea316:  add    BYTE PTR [eax],al
   0xf77ea318:  add    BYTE PTR [eax],al
   0xf77ea31a:  add    BYTE PTR [eax],al
   0xf77ea31c:  add    BYTE PTR [eax],al
   0xf77ea31e:  add    BYTE PTR [eax],al
   0xf77ea320:  add    BYTE PTR [eax],al
   0xf77ea322:  add    BYTE PTR [eax],al
   0xf77ea324:  add    BYTE PTR [eax],al
   0xf77ea326:  add    BYTE PTR [eax],al
   0xf77ea328:  add    BYTE PTR [eax],al
   0xf77ea32a:  add    BYTE PTR [eax],al
   0xf77ea32c:  add    BYTE PTR [eax],al
   0xf77ea32e:  add    BYTE PTR [eax],al
   0xf77ea330:  add    BYTE PTR [eax],al
   0xf77ea332:  add    BYTE PTR [eax],al
   0xf77ea334:  add    BYTE PTR [eax],al
   0xf77ea336:  add    BYTE PTR [eax],al
   0xf77ea338:  add    BYTE PTR [eax],al
   0xf77ea33a:  add    BYTE PTR [eax],al
   0xf77ea33c:  add    BYTE PTR [eax],al
   0xf77ea33e:  add    BYTE PTR [eax],al
   0xf77ea340:  add    BYTE PTR [eax],al
   0xf77ea342:  add    BYTE PTR [eax],al
   0xf77ea344:  add    BYTE PTR [eax],al
   0xf77ea346:  add    BYTE PTR [eax],al
   0xf77ea348:  add    BYTE PTR [eax],al
   0xf77ea34a:  add    BYTE PTR [eax],al
   0xf77ea34c:  add    BYTE PTR [eax],al
   0xf77ea34e:  add    BYTE PTR [eax],al
   0xf77ea350:  add    BYTE PTR [eax],al
   0xf77ea352:  add    BYTE PTR [eax],al
   0xf77ea354:  add    BYTE PTR [eax],al
   0xf77ea356:  add    BYTE PTR [eax],al
   0xf77ea358:  add    BYTE PTR [eax],al
   0xf77ea35a:  add    BYTE PTR [eax],al
   0xf77ea35c:  add    BYTE PTR [eax],al
   0xf77ea35e:  add    BYTE PTR [eax],al
   0xf77ea360:  add    BYTE PTR [eax],al
   0xf77ea362:  add    BYTE PTR [eax],al
   0xf77ea364:  add    BYTE PTR [eax],al
   0xf77ea366:  add    BYTE PTR [eax],al
   0xf77ea368:  add    BYTE PTR [eax],al
   0xf77ea36a:  add    BYTE PTR [eax],al
   0xf77ea36c:  add    BYTE PTR [eax],al
   0xf77ea36e:  add    BYTE PTR [eax],al
   0xf77ea370:  add    BYTE PTR [eax],al
   0xf77ea372:  add    BYTE PTR [eax],al
   0xf77ea374:  add    BYTE PTR [eax],al
   0xf77ea376:  add    BYTE PTR [eax],al
   0xf77ea378:  add    BYTE PTR [eax],al
   0xf77ea37a:  add    BYTE PTR [eax],al
   0xf77ea37c:  add    BYTE PTR [eax],al
   0xf77ea37e:  add    BYTE PTR [eax],al
   0xf77ea380:  add    BYTE PTR [eax],al
   0xf77ea382:  add    BYTE PTR [eax],al
   0xf77ea384:  add    BYTE PTR [eax],al
   0xf77ea386:  add    BYTE PTR [eax],al
   0xf77ea388:  add    BYTE PTR [eax],al
   0xf77ea38a:  add    BYTE PTR [eax],al
   0xf77ea38c:  add    BYTE PTR [eax],al
   0xf77ea38e:  add    BYTE PTR [eax],al
   0xf77ea390:  add    BYTE PTR [eax],al
   0xf77ea392:  add    BYTE PTR [eax],al
   0xf77ea394:  add    BYTE PTR [eax],al
   0xf77ea396:  add    BYTE PTR [eax],al
   0xf77ea398:  add    BYTE PTR [eax],al
   0xf77ea39a:  add    BYTE PTR [eax],al
   0xf77ea39c:  add    BYTE PTR [eax],al
   0xf77ea39e:  add    BYTE PTR [eax],al
   0xf77ea3a0:  add    BYTE PTR [eax],al
   0xf77ea3a2:  add    BYTE PTR [eax],al
   0xf77ea3a4:  add    BYTE PTR [eax],al
   0xf77ea3a6:  add    BYTE PTR [eax],al
   0xf77ea3a8:  add    BYTE PTR [eax],al
   0xf77ea3aa:  add    BYTE PTR [eax],al
   0xf77ea3ac:  add    BYTE PTR [eax],al
   0xf77ea3ae:  add    BYTE PTR [eax],al
   0xf77ea3b0:  add    BYTE PTR [eax],al
   0xf77ea3b2:  add    BYTE PTR [eax],al
   0xf77ea3b4:  add    BYTE PTR [eax],al
   0xf77ea3b6:  add    BYTE PTR [eax],al
   0xf77ea3b8:  add    BYTE PTR [eax],al
   0xf77ea3ba:  add    BYTE PTR [eax],al
   0xf77ea3bc:  add    BYTE PTR [eax],al
   0xf77ea3be:  add    BYTE PTR [eax],al
   0xf77ea3c0:  add    BYTE PTR [eax],al
   0xf77ea3c2:  add    BYTE PTR [eax],al
   0xf77ea3c4:  add    BYTE PTR [eax],al
   0xf77ea3c6:  add    BYTE PTR [eax],al
   0xf77ea3c8:  add    BYTE PTR [eax],al
   0xf77ea3ca:  add    BYTE PTR [eax],al
   0xf77ea3cc:  add    BYTE PTR [eax],al
   0xf77ea3ce:  add    BYTE PTR [eax],al
   0xf77ea3d0:  add    BYTE PTR [eax],al
   0xf77ea3d2:  add    BYTE PTR [eax],al
   0xf77ea3d4:  add    BYTE PTR [eax],al
   0xf77ea3d6:  add    BYTE PTR [eax],al
   0xf77ea3d8:  add    BYTE PTR [eax],al
   0xf77ea3da:  add    BYTE PTR [eax],al
   0xf77ea3dc:  add    BYTE PTR [eax],al
   0xf77ea3de:  add    BYTE PTR [eax],al
   0xf77ea3e0:  add    BYTE PTR [eax],al
   0xf77ea3e2:  add    BYTE PTR [eax],al
   0xf77ea3e4:  add    BYTE PTR [eax],al
   0xf77ea3e6:  add    BYTE PTR [eax],al
   0xf77ea3e8:  add    BYTE PTR [eax],al
   0xf77ea3ea:  add    BYTE PTR [eax],al
   0xf77ea3ec:  add    BYTE PTR [eax],al
   0xf77ea3ee:  add    BYTE PTR [eax],al
   0xf77ea3f0:  add    BYTE PTR [eax],al
   0xf77ea3f2:  add    BYTE PTR [eax],al
   0xf77ea3f4:  add    BYTE PTR [eax],al
   0xf77ea3f6:  add    BYTE PTR [eax],al
   0xf77ea3f8:  add    BYTE PTR [eax],al
   0xf77ea3fa:  add    BYTE PTR [eax],al
   0xf77ea3fc:  add    BYTE PTR [eax],al
   0xf77ea3fe:  add    BYTE PTR [eax],al
   0xf77ea400:  add    BYTE PTR [eax],al
   0xf77ea402:  add    BYTE PTR [eax],al
   0xf77ea404:  add    BYTE PTR [eax],al
   0xf77ea406:  add    BYTE PTR [eax],al
   0xf77ea408:  add    BYTE PTR [eax],al
   0xf77ea40a:  add    BYTE PTR [eax],al
   0xf77ea40c:  add    BYTE PTR [eax],al
   0xf77ea40e:  add    BYTE PTR [eax],al
   0xf77ea410:  add    BYTE PTR [eax],al
   0xf77ea412:  add    BYTE PTR [eax],al
   0xf77ea414:  add    BYTE PTR [eax],al
   0xf77ea416:  add    BYTE PTR [eax],al
   0xf77ea418:  add    BYTE PTR [eax],al
   0xf77ea41a:  add    BYTE PTR [eax],al
   0xf77ea41c:  add    BYTE PTR [eax],al
   0xf77ea41e:  add    BYTE PTR [eax],al
   0xf77ea420:  add    BYTE PTR [eax],al
   0xf77ea422:  add    BYTE PTR [eax],al
   0xf77ea424:  add    BYTE PTR [eax],al
   0xf77ea426:  add    BYTE PTR [eax],al
   0xf77ea428:  add    BYTE PTR [eax],al
   0xf77ea42a:  add    BYTE PTR [eax],al

   0xf77ea42c:  add    BYTE PTR [eax],al
   0xf77ea42e:  add    BYTE PTR [eax],al
   0xf77ea430:  add    BYTE PTR [eax],al
   0xf77ea432:  add    BYTE PTR [eax],al
   0xf77ea434:  add    BYTE PTR [eax],al
   0xf77ea436:  add    BYTE PTR [eax],al
   0xf77ea438:  add    BYTE PTR [eax],al
   0xf77ea43a:  add    BYTE PTR [eax],al
   0xf77ea43c:  add    BYTE PTR [eax],al
   0xf77ea43e:  add    BYTE PTR [eax],al
   0xf77ea440:  add    BYTE PTR [eax],al
   0xf77ea442:  add    BYTE PTR [eax],al
   0xf77ea444:  add    BYTE PTR [eax],al
   0xf77ea446:  add    BYTE PTR [eax],al
   0xf77ea448:  add    BYTE PTR [eax],al
   0xf77ea44a:  add    BYTE PTR [eax],al
   0xf77ea44c:  add    BYTE PTR [eax],al
   0xf77ea44e:  add    BYTE PTR [eax],al
   0xf77ea450:  add    BYTE PTR [eax],al
   0xf77ea452:  add    BYTE PTR [eax],al
   0xf77ea454:  add    BYTE PTR [eax],al
   0xf77ea456:  add    BYTE PTR [eax],al
   0xf77ea458:  add    BYTE PTR [eax],al
   0xf77ea45a:  add    BYTE PTR [eax],al
   0xf77ea45c:  add    BYTE PTR [eax],al
   0xf77ea45e:  add    BYTE PTR [eax],al
   0xf77ea460:  add    BYTE PTR [eax],al
   0xf77ea462:  add    BYTE PTR [eax],al
   0xf77ea464:  add    BYTE PTR [eax],al
   0xf77ea466:  add    BYTE PTR [eax],al
   0xf77ea468:  add    BYTE PTR [eax],al
   0xf77ea46a:  add    BYTE PTR [eax],al
   0xf77ea46c:  add    BYTE PTR [eax],al
   0xf77ea46e:  add    BYTE PTR [eax],al
   0xf77ea470:  add    BYTE PTR [eax],al
   0xf77ea472:  add    BYTE PTR [eax],al
   0xf77ea474:  add    BYTE PTR [eax],al
   0xf77ea476:  add    BYTE PTR [eax],al
   0xf77ea478:  add    BYTE PTR [eax],al
   0xf77ea47a:  add    BYTE PTR [eax],al
   0xf77ea47c:  add    BYTE PTR [eax],al
   0xf77ea47e:  add    BYTE PTR [eax],al
   0xf77ea480:  add    BYTE PTR [eax],al
   0xf77ea482:  add    BYTE PTR [eax],al
   0xf77ea484:  add    BYTE PTR [eax],al
   0xf77ea486:  add    BYTE PTR [eax],al
   0xf77ea488:  add    BYTE PTR [eax],al
   0xf77ea48a:  add    BYTE PTR [eax],al
   0xf77ea48c:  add    BYTE PTR [eax],al
   0xf77ea48e:  add    BYTE PTR [eax],al
   0xf77ea490:  add    BYTE PTR [eax],al
   0xf77ea492:  add    BYTE PTR [eax],al
   0xf77ea494:  add    BYTE PTR [eax],al
   0xf77ea496:  add    BYTE PTR [eax],al
   0xf77ea498:  add    BYTE PTR [eax],al
   0xf77ea49a:  add    BYTE PTR [eax],al
   0xf77ea49c:  add    BYTE PTR [eax],al
   0xf77ea49e:  add    BYTE PTR [eax],al
   0xf77ea4a0:  add    BYTE PTR [eax],al
   0xf77ea4a2:  add    BYTE PTR [eax],al
   0xf77ea4a4:  add    BYTE PTR [eax],al
   0xf77ea4a6:  add    BYTE PTR [eax],al
   0xf77ea4a8:  add    BYTE PTR [eax],al
   0xf77ea4aa:  add    BYTE PTR [eax],al
   0xf77ea4ac:  add    BYTE PTR [eax],al
   0xf77ea4ae:  add    BYTE PTR [eax],al
   0xf77ea4b0:  add    BYTE PTR [eax],al
   0xf77ea4b2:  add    BYTE PTR [eax],al
   0xf77ea4b4:  add    BYTE PTR [eax],al
   0xf77ea4b6:  add    BYTE PTR [eax],al
   0xf77ea4b8:  add    BYTE PTR [eax],al
   0xf77ea4ba:  add    BYTE PTR [eax],al
   0xf77ea4bc:  add    BYTE PTR [eax],al
   0xf77ea4be:  add    BYTE PTR [eax],al
   0xf77ea4c0:  add    BYTE PTR [eax],al
   0xf77ea4c2:  add    BYTE PTR [eax],al
   0xf77ea4c4:  add    BYTE PTR [eax],al
   0xf77ea4c6:  add    BYTE PTR [eax],al
   0xf77ea4c8:  add    BYTE PTR [eax],al
   0xf77ea4ca:  add    BYTE PTR [eax],al
   0xf77ea4cc:  add    BYTE PTR [eax],al
   0xf77ea4ce:  add    BYTE PTR [eax],al
   0xf77ea4d0:  add    BYTE PTR [eax],al
   0xf77ea4d2:  add    BYTE PTR [eax],al
   0xf77ea4d4:  add    BYTE PTR [eax],al
   0xf77ea4d6:  add    BYTE PTR [eax],al
   0xf77ea4d8:  add    BYTE PTR [eax],al
   0xf77ea4da:  add    BYTE PTR [eax],al
   0xf77ea4dc:  add    BYTE PTR [eax],al
   0xf77ea4de:  add    BYTE PTR [eax],al
   0xf77ea4e0:  add    BYTE PTR [eax],al
   0xf77ea4e2:  add    BYTE PTR [eax],al
   0xf77ea4e4:  add    BYTE PTR [eax],al
   0xf77ea4e6:  add    BYTE PTR [eax],al
   0xf77ea4e8:  add    BYTE PTR [eax],al
   0xf77ea4ea:  add    BYTE PTR [eax],al
   0xf77ea4ec:  add    BYTE PTR [eax],al
   0xf77ea4ee:  add    BYTE PTR [eax],al
   0xf77ea4f0:  add    BYTE PTR [eax],al
   0xf77ea4f2:  add    BYTE PTR [eax],al
   0xf77ea4f4:  add    BYTE PTR [eax],al
   0xf77ea4f6:  add    BYTE PTR [eax],al
   0xf77ea4f8:  add    BYTE PTR [eax],al
   0xf77ea4fa:  add    BYTE PTR [eax],al
   0xf77ea4fc:  add    BYTE PTR [eax],al
   0xf77ea4fe:  add    BYTE PTR [eax],al
   0xf77ea500:  add    BYTE PTR [eax],al
   0xf77ea502:  add    BYTE PTR [eax],al
   0xf77ea504:  add    BYTE PTR [eax],al
   0xf77ea506:  add    BYTE PTR [eax],al
   0xf77ea508:  add    BYTE PTR [eax],al
   0xf77ea50a:  add    BYTE PTR [eax],al
   0xf77ea50c:  add    BYTE PTR [eax],al
   0xf77ea50e:  add    BYTE PTR [eax],al
   0xf77ea510:  add    BYTE PTR [eax],al
   0xf77ea512:  add    BYTE PTR [eax],al
   0xf77ea514:  add    BYTE PTR [eax],al
   0xf77ea516:  add    BYTE PTR [eax],al
   0xf77ea518:  add    BYTE PTR [eax],al
   0xf77ea51a:  add    BYTE PTR [eax],al
   0xf77ea51c:  add    BYTE PTR [eax],al
   0xf77ea51e:  add    BYTE PTR [eax],al
   0xf77ea520:  add    BYTE PTR [eax],al
   0xf77ea522:  add    BYTE PTR [eax],al
   0xf77ea524:  add    BYTE PTR [eax],al
   0xf77ea526:  add    BYTE PTR [eax],al
   0xf77ea528:  add    BYTE PTR [eax],al
   0xf77ea52a:  add    BYTE PTR [eax],al
   0xf77ea52c:  add    BYTE PTR [eax],al
   0xf77ea52e:  add    BYTE PTR [eax],al
   0xf77ea530:  add    BYTE PTR [eax],al
   0xf77ea532:  add    BYTE PTR [eax],al
   0xf77ea534:  add    BYTE PTR [eax],al
   0xf77ea536:  add    BYTE PTR [eax],al
   0xf77ea538:  add    BYTE PTR [eax],al
   0xf77ea53a:  add    BYTE PTR [eax],al
   0xf77ea53c:  add    BYTE PTR [eax],al
   0xf77ea53e:  add    BYTE PTR [eax],al
   0xf77ea540:  add    BYTE PTR [eax],al
   0xf77ea542:  add    BYTE PTR [eax],al
   0xf77ea544:  add    BYTE PTR [eax],al
   0xf77ea546:  add    BYTE PTR [eax],al
   0xf77ea548:  add    BYTE PTR [eax],al
   0xf77ea54a:  add    BYTE PTR [eax],al
   0xf77ea54c:  add    BYTE PTR [eax],al
   0xf77ea54e:  add    BYTE PTR [eax],al
   0xf77ea550:  add    BYTE PTR [eax],al
   0xf77ea552:  add    BYTE PTR [eax],al
   0xf77ea554:  add    BYTE PTR [eax],al
   0xf77ea556:  add    BYTE PTR [eax],al
   0xf77ea558:  add    BYTE PTR [eax],al
   0xf77ea55a:  add    BYTE PTR [eax],al
   0xf77ea55c:  add    BYTE PTR [eax],al
   0xf77ea55e:  add    BYTE PTR [eax],al
   0xf77ea560:  add    BYTE PTR [eax],al
   0xf77ea562:  add    BYTE PTR [eax],al
   0xf77ea564:  add    BYTE PTR [eax],al
   0xf77ea566:  add    BYTE PTR [eax],al
   0xf77ea568:  add    BYTE PTR [eax],al
   0xf77ea56a:  add    BYTE PTR [eax],al
   0xf77ea56c:  add    BYTE PTR [eax],al
   0xf77ea56e:  add    BYTE PTR [eax],al
   0xf77ea570:  add    BYTE PTR [eax],al
   0xf77ea572:  add    BYTE PTR [eax],al
   0xf77ea574:  add    BYTE PTR [eax],al
   0xf77ea576:  add    BYTE PTR [eax],al
   0xf77ea578:  add    BYTE PTR [eax],al
   0xf77ea57a:  add    BYTE PTR [eax],al
   0xf77ea57c:  add    BYTE PTR [eax],al
   0xf77ea57e:  add    BYTE PTR [eax],al
   0xf77ea580:  add    BYTE PTR [eax],al
   0xf77ea582:  add    BYTE PTR [eax],al
   0xf77ea584:  add    BYTE PTR [eax],al
   0xf77ea586:  add    BYTE PTR [eax],al
   0xf77ea588:  add    BYTE PTR [eax],al
   0xf77ea58a:  add    BYTE PTR [eax],al
   0xf77ea58c:  add    BYTE PTR [eax],al
   0xf77ea58e:  add    BYTE PTR [eax],al
   0xf77ea590:  add    BYTE PTR [eax],al
   0xf77ea592:  add    BYTE PTR [eax],al
   0xf77ea594:  add    BYTE PTR [eax],al
   0xf77ea596:  add    BYTE PTR [eax],al
   0xf77ea598:  add    BYTE PTR [eax],al
   0xf77ea59a:  add    BYTE PTR [eax],al
   0xf77ea59c:  add    BYTE PTR [eax],al
   0xf77ea59e:  add    BYTE PTR [eax],al
   0xf77ea5a0:  add    BYTE PTR [eax],al
   0xf77ea5a2:  add    BYTE PTR [eax],al
   0xf77ea5a4:  add    BYTE PTR [eax],al
   0xf77ea5a6:  add    BYTE PTR [eax],al
   0xf77ea5a8:  add    BYTE PTR [eax],al
   0xf77ea5aa:  add    BYTE PTR [eax],al
   0xf77ea5ac:  add    BYTE PTR [eax],al
   0xf77ea5ae:  add    BYTE PTR [eax],al
   0xf77ea5b0:  add    BYTE PTR [eax],al
   0xf77ea5b2:  add    BYTE PTR [eax],al
   0xf77ea5b4:  add    BYTE PTR [eax],al
   0xf77ea5b6:  add    BYTE PTR [eax],al
   0xf77ea5b8:  add    BYTE PTR [eax],al
   0xf77ea5ba:  add    BYTE PTR [eax],al
   0xf77ea5bc:  add    BYTE PTR [eax],al
   0xf77ea5be:  add    BYTE PTR [eax],al
   0xf77ea5c0:  add    BYTE PTR [eax],al
   0xf77ea5c2:  add    BYTE PTR [eax],al
   0xf77ea5c4:  add    BYTE PTR [eax],al
   0xf77ea5c6:  add    BYTE PTR [eax],al
   0xf77ea5c8:  add    BYTE PTR [eax],al
   0xf77ea5ca:  add    BYTE PTR [eax],al
   0xf77ea5cc:  add    BYTE PTR [eax],al
   0xf77ea5ce:  add    BYTE PTR [eax],al
   0xf77ea5d0:  add    BYTE PTR [eax],al
   0xf77ea5d2:  add    BYTE PTR [eax],al
   0xf77ea5d4:  add    BYTE PTR [eax],al
   0xf77ea5d6:  add    BYTE PTR [eax],al
   0xf77ea5d8:  add    BYTE PTR [eax],al
   0xf77ea5da:  add    BYTE PTR [eax],al
   0xf77ea5dc:  add    BYTE PTR [eax],al
   0xf77ea5de:  add    BYTE PTR [eax],al
   0xf77ea5e0:  add    BYTE PTR [eax],al
   0xf77ea5e2:  add    BYTE PTR [eax],al
   0xf77ea5e4:  add    BYTE PTR [eax],al
   0xf77ea5e6:  add    BYTE PTR [eax],al
   0xf77ea5e8:  add    BYTE PTR [eax],al
   0xf77ea5ea:  add    BYTE PTR [eax],al
   0xf77ea5ec:  add    BYTE PTR [eax],al
   0xf77ea5ee:  add    BYTE PTR [eax],al
   0xf77ea5f0:  add    BYTE PTR [eax],al
   0xf77ea5f2:  add    BYTE PTR [eax],al
   0xf77ea5f4:  add    BYTE PTR [eax],al
   0xf77ea5f6:  add    BYTE PTR [eax],al
   0xf77ea5f8:  add    BYTE PTR [eax],al
   0xf77ea5fa:  add    BYTE PTR [eax],al
   0xf77ea5fc:  add    BYTE PTR [eax],al
   0xf77ea5fe:  add    BYTE PTR [eax],al
   0xf77ea600:  add    BYTE PTR [eax],al
   0xf77ea602:  add    BYTE PTR [eax],al
   0xf77ea604:  add    BYTE PTR [eax],al
   0xf77ea606:  add    BYTE PTR [eax],al
   0xf77ea608:  add    BYTE PTR [eax],al
   0xf77ea60a:  add    BYTE PTR [eax],al
   0xf77ea60c:  add    BYTE PTR [eax],al
   0xf77ea60e:  add    BYTE PTR [eax],al
   0xf77ea610:  add    BYTE PTR [eax],al
   0xf77ea612:  add    BYTE PTR [eax],al
   0xf77ea614:  add    BYTE PTR [eax],al
   0xf77ea616:  add    BYTE PTR [eax],al
   0xf77ea618:  add    BYTE PTR [eax],al
   0xf77ea61a:  add    BYTE PTR [eax],al
   0xf77ea61c:  add    BYTE PTR [eax],al
   0xf77ea61e:  add    BYTE PTR [eax],al
   0xf77ea620:  add    BYTE PTR [eax],al
   0xf77ea622:  add    BYTE PTR [eax],al
   0xf77ea624:  add    BYTE PTR [eax],al
   0xf77ea626:  add    BYTE PTR [eax],al
   0xf77ea628:  add    BYTE PTR [eax],al
   0xf77ea62a:  add    BYTE PTR [eax],al
   0xf77ea62c:  add    BYTE PTR [eax],al
   0xf77ea62e:  add    BYTE PTR [eax],al
   0xf77ea630:  add    BYTE PTR [eax],al
   0xf77ea632:  add    BYTE PTR [eax],al
   0xf77ea634:  add    BYTE PTR [eax],al
   0xf77ea636:  add    BYTE PTR [eax],al
   0xf77ea638:  add    BYTE PTR [eax],al
   0xf77ea63a:  add    BYTE PTR [eax],al
   0xf77ea63c:  add    BYTE PTR [eax],al
   0xf77ea63e:  add    BYTE PTR [eax],al
   0xf77ea640:  add    BYTE PTR [eax],al
   0xf77ea642:  add    BYTE PTR [eax],al
   0xf77ea644:  add    BYTE PTR [eax],al
   0xf77ea646:  add    BYTE PTR [eax],al
   0xf77ea648:  add    BYTE PTR [eax],al
   0xf77ea64a:  add    BYTE PTR [eax],al
   0xf77ea64c:  add    BYTE PTR [eax],al
   0xf77ea64e:  add    BYTE PTR [eax],al
   0xf77ea650:  add    BYTE PTR [eax],al
   0xf77ea652:  add    BYTE PTR [eax],al
   0xf77ea654:  add    BYTE PTR [eax],al
   0xf77ea656:  add    BYTE PTR [eax],al
   0xf77ea658:  add    BYTE PTR [eax],al
   0xf77ea65a:  add    BYTE PTR [eax],al
   0xf77ea65c:  add    BYTE PTR [eax],al
   0xf77ea65e:  add    BYTE PTR [eax],al
   0xf77ea660:  add    BYTE PTR [eax],al
   0xf77ea662:  add    BYTE PTR [eax],al
   0xf77ea664:  add    BYTE PTR [eax],al
   0xf77ea666:  add    BYTE PTR [eax],al
   0xf77ea668:  add    BYTE PTR [eax],al
   0xf77ea66a:  add    BYTE PTR [eax],al
   0xf77ea66c:  add    BYTE PTR [eax],al
   0xf77ea66e:  add    BYTE PTR [eax],al
   0xf77ea670:  add    BYTE PTR [eax],al
   0xf77ea672:  add    BYTE PTR [eax],al
   0xf77ea674:  add    BYTE PTR [eax],al
   0xf77ea676:  add    BYTE PTR [eax],al
   0xf77ea678:  add    BYTE PTR [eax],al
   0xf77ea67a:  add    BYTE PTR [eax],al
   0xf77ea67c:  add    BYTE PTR [eax],al
   0xf77ea67e:  add    BYTE PTR [eax],al
   0xf77ea680:  add    BYTE PTR [eax],al
   0xf77ea682:  add    BYTE PTR [eax],al
   0xf77ea684:  add    BYTE PTR [eax],al
   0xf77ea686:  add    BYTE PTR [eax],al
   0xf77ea688:  add    BYTE PTR [eax],al
   0xf77ea68a:  add    BYTE PTR [eax],al
   0xf77ea68c:  add    BYTE PTR [eax],al
   0xf77ea68e:  add    BYTE PTR [eax],al
   0xf77ea690:  add    BYTE PTR [eax],al
   0xf77ea692:  add    BYTE PTR [eax],al
   0xf77ea694:  add    BYTE PTR [eax],al
   0xf77ea696:  add    BYTE PTR [eax],al
   0xf77ea698:  add    BYTE PTR [eax],al
   0xf77ea69a:  add    BYTE PTR [eax],al
   0xf77ea69c:  add    BYTE PTR [eax],al
   0xf77ea69e:  add    BYTE PTR [eax],al
   0xf77ea6a0:  add    BYTE PTR [eax],al
   0xf77ea6a2:  add    BYTE PTR [eax],al
   0xf77ea6a4:  add    BYTE PTR [eax],al
   0xf77ea6a6:  add    BYTE PTR [eax],al
   0xf77ea6a8:  add    BYTE PTR [eax],al
   0xf77ea6aa:  add    BYTE PTR [eax],al
   0xf77ea6ac:  add    BYTE PTR [eax],al
   0xf77ea6ae:  add    BYTE PTR [eax],al
   0xf77ea6b0:  add    BYTE PTR [eax],al
   0xf77ea6b2:  add    BYTE PTR [eax],al
   0xf77ea6b4:  add    BYTE PTR [eax],al
   0xf77ea6b6:  add    BYTE PTR [eax],al
   0xf77ea6b8:  add    BYTE PTR [eax],al
   0xf77ea6ba:  add    BYTE PTR [eax],al
   0xf77ea6bc:  add    BYTE PTR [eax],al
   0xf77ea6be:  add    BYTE PTR [eax],al
   0xf77ea6c0:  add    BYTE PTR [eax],al
   0xf77ea6c2:  add    BYTE PTR [eax],al
   0xf77ea6c4:  add    BYTE PTR [eax],al
   0xf77ea6c6:  add    BYTE PTR [eax],al
   0xf77ea6c8:  add    BYTE PTR [eax],al
   0xf77ea6ca:  add    BYTE PTR [eax],al
   0xf77ea6cc:  add    BYTE PTR [eax],al
   0xf77ea6ce:  add    BYTE PTR [eax],al
   0xf77ea6d0:  add    BYTE PTR [eax],al
   0xf77ea6d2:  add    BYTE PTR [eax],al
   0xf77ea6d4:  add    BYTE PTR [eax],al
   0xf77ea6d6:  add    BYTE PTR [eax],al
   0xf77ea6d8:  add    BYTE PTR [eax],al
   0xf77ea6da:  add    BYTE PTR [eax],al
   0xf77ea6dc:  add    BYTE PTR [eax],al
   0xf77ea6de:  add    BYTE PTR [eax],al
   0xf77ea6e0:  add    BYTE PTR [eax],al
   0xf77ea6e2:  add    BYTE PTR [eax],al
   0xf77ea6e4:  add    BYTE PTR [eax],al
   0xf77ea6e6:  add    BYTE PTR [eax],al
   0xf77ea6e8:  add    BYTE PTR [eax],al
   0xf77ea6ea:  add    BYTE PTR [eax],al
   0xf77ea6ec:  add    BYTE PTR [eax],al
   0xf77ea6ee:  add    BYTE PTR [eax],al
   0xf77ea6f0:  add    BYTE PTR [eax],al
   0xf77ea6f2:  add    BYTE PTR [eax],al
   0xf77ea6f4:  add    BYTE PTR [eax],al
   0xf77ea6f6:  add    BYTE PTR [eax],al
   0xf77ea6f8:  add    BYTE PTR [eax],al
   0xf77ea6fa:  add    BYTE PTR [eax],al
   0xf77ea6fc:  add    BYTE PTR [eax],al
   0xf77ea6fe:  add    BYTE PTR [eax],al
   0xf77ea700:  add    BYTE PTR [eax],al
   0xf77ea702:  add    BYTE PTR [eax],al
   0xf77ea704:  add    BYTE PTR [eax],al
   0xf77ea706:  add    BYTE PTR [eax],al
   0xf77ea708:  add    BYTE PTR [eax],al
   0xf77ea70a:  add    BYTE PTR [eax],al
   0xf77ea70c:  add    BYTE PTR [eax],al
   0xf77ea70e:  add    BYTE PTR [eax],al
   0xf77ea710:  add    BYTE PTR [eax],al
   0xf77ea712:  add    BYTE PTR [eax],al
   0xf77ea714:  add    BYTE PTR [eax],al
   0xf77ea716:  add    BYTE PTR [eax],al
   0xf77ea718:  add    BYTE PTR [eax],al
   0xf77ea71a:  add    BYTE PTR [eax],al
   0xf77ea71c:  add    BYTE PTR [eax],al
   0xf77ea71e:  add    BYTE PTR [eax],al
   0xf77ea720:  add    BYTE PTR [eax],al
   0xf77ea722:  add    BYTE PTR [eax],al
   0xf77ea724:  add    BYTE PTR [eax],al
   0xf77ea726:  add    BYTE PTR [eax],al
   0xf77ea728:  add    BYTE PTR [eax],al
   0xf77ea72a:  add    BYTE PTR [eax],al
   0xf77ea72c:  add    BYTE PTR [eax],al
   0xf77ea72e:  add    BYTE PTR [eax],al
   0xf77ea730:  add    BYTE PTR [eax],al
   0xf77ea732:  add    BYTE PTR [eax],al
   0xf77ea734:  add    BYTE PTR [eax],al
   0xf77ea736:  add    BYTE PTR [eax],al
   0xf77ea738:  add    BYTE PTR [eax],al
   0xf77ea73a:  add    BYTE PTR [eax],al
   0xf77ea73c:  add    BYTE PTR [eax],al
   0xf77ea73e:  add    BYTE PTR [eax],al
   0xf77ea740:  add    BYTE PTR [eax],al
   0xf77ea742:  add    BYTE PTR [eax],al
   0xf77ea744:  add    BYTE PTR [eax],al
   0xf77ea746:  add    BYTE PTR [eax],al
   0xf77ea748:  add    BYTE PTR [eax],al
   0xf77ea74a:  add    BYTE PTR [eax],al
   0xf77ea74c:  add    BYTE PTR [eax],al
   0xf77ea74e:  add    BYTE PTR [eax],al
   0xf77ea750:  add    BYTE PTR [eax],al
   0xf77ea752:  add    BYTE PTR [eax],al
   0xf77ea754:  add    BYTE PTR [eax],al
   0xf77ea756:  add    BYTE PTR [eax],al
   0xf77ea758:  add    BYTE PTR [eax],al
   0xf77ea75a:  add    BYTE PTR [eax],al
   0xf77ea75c:  add    BYTE PTR [eax],al
   0xf77ea75e:  add    BYTE PTR [eax],al
   0xf77ea760:  add    BYTE PTR [eax],al
   0xf77ea762:  add    BYTE PTR [eax],al
   0xf77ea764:  add    BYTE PTR [eax],al
   0xf77ea766:  add    BYTE PTR [eax],al
   0xf77ea768:  add    BYTE PTR [eax],al
   0xf77ea76a:  add    BYTE PTR [eax],al
   0xf77ea76c:  add    BYTE PTR [eax],al
   0xf77ea76e:  add    BYTE PTR [eax],al
   0xf77ea770:  add    BYTE PTR [eax],al
   0xf77ea772:  add    BYTE PTR [eax],al
   0xf77ea774:  add    BYTE PTR [eax],al
   0xf77ea776:  add    BYTE PTR [eax],al
   0xf77ea778:  add    BYTE PTR [eax],al
   0xf77ea77a:  add    BYTE PTR [eax],al
   0xf77ea77c:  add    BYTE PTR [eax],al
   0xf77ea77e:  add    BYTE PTR [eax],al
   0xf77ea780:  add    BYTE PTR [eax],al
   0xf77ea782:  add    BYTE PTR [eax],al
   0xf77ea784:  add    BYTE PTR [eax],al
   0xf77ea786:  add    BYTE PTR [eax],al
   0xf77ea788:  add    BYTE PTR [eax],al
   0xf77ea78a:  add    BYTE PTR [eax],al
   0xf77ea78c:  add    BYTE PTR [eax],al
   0xf77ea78e:  add    BYTE PTR [eax],al
   0xf77ea790:  add    BYTE PTR [eax],al
   0xf77ea792:  add    BYTE PTR [eax],al
   0xf77ea794:  add    BYTE PTR [eax],al
   0xf77ea796:  add    BYTE PTR [eax],al
   0xf77ea798:  add    BYTE PTR [eax],al
   0xf77ea79a:  add    BYTE PTR [eax],al
   0xf77ea79c:  add    BYTE PTR [eax],al
   0xf77ea79e:  add    BYTE PTR [eax],al
   0xf77ea7a0:  add    BYTE PTR [eax],al
   0xf77ea7a2:  add    BYTE PTR [eax],al
   0xf77ea7a4:  add    BYTE PTR [eax],al
   0xf77ea7a6:  add    BYTE PTR [eax],al
   0xf77ea7a8:  add    BYTE PTR [eax],al
   0xf77ea7aa:  add    BYTE PTR [eax],al
   0xf77ea7ac:  add    BYTE PTR [eax],al
   0xf77ea7ae:  add    BYTE PTR [eax],al
   0xf77ea7b0:  add    BYTE PTR [eax],al
   0xf77ea7b2:  add    BYTE PTR [eax],al
   0xf77ea7b4:  add    BYTE PTR [eax],al
   0xf77ea7b6:  add    BYTE PTR [eax],al
   0xf77ea7b8:  add    BYTE PTR [eax],al
   0xf77ea7ba:  add    BYTE PTR [eax],al
   0xf77ea7bc:  add    BYTE PTR [eax],al
   0xf77ea7be:  add    BYTE PTR [eax],al
   0xf77ea7c0:  add    BYTE PTR [eax],al
   0xf77ea7c2:  add    BYTE PTR [eax],al
   0xf77ea7c4:  add    BYTE PTR [eax],al
   0xf77ea7c6:  add    BYTE PTR [eax],al
   0xf77ea7c8:  add    BYTE PTR [eax],al
   0xf77ea7ca:  add    BYTE PTR [eax],al
   0xf77ea7cc:  add    BYTE PTR [eax],al
   0xf77ea7ce:  add    BYTE PTR [eax],al
   0xf77ea7d0:  add    BYTE PTR [eax],al
   0xf77ea7d2:  add    BYTE PTR [eax],al
   0xf77ea7d4:  add    BYTE PTR [eax],al
   0xf77ea7d6:  add    BYTE PTR [eax],al
   0xf77ea7d8:  add    BYTE PTR [eax],al
   0xf77ea7da:  add    BYTE PTR [eax],al
   0xf77ea7dc:  add    BYTE PTR [eax],al
   0xf77ea7de:  add    BYTE PTR [eax],al
   0xf77ea7e0:  add    BYTE PTR [eax],al
   0xf77ea7e2:  add    BYTE PTR [eax],al
   0xf77ea7e4:  add    BYTE PTR [eax],al
   0xf77ea7e6:  add    BYTE PTR [eax],al
   0xf77ea7e8:  add    BYTE PTR [eax],al
   0xf77ea7ea:  add    BYTE PTR [eax],al
   0xf77ea7ec:  add    BYTE PTR [eax],al
   0xf77ea7ee:  add    BYTE PTR [eax],al
   0xf77ea7f0:  add    BYTE PTR [eax],al
   0xf77ea7f2:  add    BYTE PTR [eax],al
   0xf77ea7f4:  add    BYTE PTR [eax],al
   0xf77ea7f6:  add    BYTE PTR [eax],al
   0xf77ea7f8:  add    BYTE PTR [eax],al
   0xf77ea7fa:  add    BYTE PTR [eax],al
   0xf77ea7fc:  add    BYTE PTR [eax],al
   0xf77ea7fe:  add    BYTE PTR [eax],al
   0xf77ea800:  add    BYTE PTR [eax],al
   0xf77ea802:  add    BYTE PTR [eax],al
   0xf77ea804:  add    BYTE PTR [eax],al
   0xf77ea806:  add    BYTE PTR [eax],al
   0xf77ea808:  add    BYTE PTR [eax],al
   0xf77ea80a:  add    BYTE PTR [eax],al
   0xf77ea80c:  add    BYTE PTR [eax],al
   0xf77ea80e:  add    BYTE PTR [eax],al
   0xf77ea810:  add    BYTE PTR [eax],al
   0xf77ea812:  add    BYTE PTR [eax],al
   0xf77ea814:  add    BYTE PTR [eax],al
   0xf77ea816:  add    BYTE PTR [eax],al
   0xf77ea818:  add    BYTE PTR [eax],al
   0xf77ea81a:  add    BYTE PTR [eax],al
   0xf77ea81c:  add    BYTE PTR [eax],al
   0xf77ea81e:  add    BYTE PTR [eax],al
   0xf77ea820:  add    BYTE PTR [eax],al
   0xf77ea822:  add    BYTE PTR [eax],al
   0xf77ea824:  add    BYTE PTR [eax],al
   0xf77ea826:  add    BYTE PTR [eax],al
   0xf77ea828:  add    BYTE PTR [eax],al
   0xf77ea82a:  add    BYTE PTR [eax],al
   0xf77ea82c:  add    BYTE PTR [eax],al
   0xf77ea82e:  add    BYTE PTR [eax],al
   0xf77ea830:  add    BYTE PTR [eax],al
   0xf77ea832:  add    BYTE PTR [eax],al
   0xf77ea834:  add    BYTE PTR [eax],al
   0xf77ea836:  add    BYTE PTR [eax],al
   0xf77ea838:  add    BYTE PTR [eax],al
   0xf77ea83a:  add    BYTE PTR [eax],al
   0xf77ea83c:  add    BYTE PTR [eax],al
   0xf77ea83e:  add    BYTE PTR [eax],al
   0xf77ea840:  add    BYTE PTR [eax],al
   0xf77ea842:  add    BYTE PTR [eax],al
   0xf77ea844:  add    BYTE PTR [eax],al
   0xf77ea846:  add    BYTE PTR [eax],al
   0xf77ea848:  add    BYTE PTR [eax],al
   0xf77ea84a:  add    BYTE PTR [eax],al
   0xf77ea84c:  add    BYTE PTR [eax],al
   0xf77ea84e:  add    BYTE PTR [eax],al
   0xf77ea850:  add    BYTE PTR [eax],al
   0xf77ea852:  add    BYTE PTR [eax],al
   0xf77ea854:  add    BYTE PTR [eax],al
   0xf77ea856:  add    BYTE PTR [eax],al
   0xf77ea858:  add    BYTE PTR [eax],al
   0xf77ea85a:  add    BYTE PTR [eax],al
   0xf77ea85c:  add    BYTE PTR [eax],al

   0xf77ea85e:  add    BYTE PTR [eax],al
   0xf77ea860:  add    BYTE PTR [eax],al
   0xf77ea862:  add    BYTE PTR [eax],al
   0xf77ea864:  add    BYTE PTR [eax],al
   0xf77ea866:  add    BYTE PTR [eax],al
   0xf77ea868:  add    BYTE PTR [eax],al
   0xf77ea86a:  add    BYTE PTR [eax],al
   0xf77ea86c:  add    BYTE PTR [eax],al
   0xf77ea86e:  add    BYTE PTR [eax],al
   0xf77ea870:  add    BYTE PTR [eax],al
   0xf77ea872:  add    BYTE PTR [eax],al
   0xf77ea874:  add    BYTE PTR [eax],al
   0xf77ea876:  add    BYTE PTR [eax],al
   0xf77ea878:  add    BYTE PTR [eax],al
   0xf77ea87a:  add    BYTE PTR [eax],al
   0xf77ea87c:  add    BYTE PTR [eax],al
   0xf77ea87e:  add    BYTE PTR [eax],al
   0xf77ea880:  add    BYTE PTR [eax],al
   0xf77ea882:  add    BYTE PTR [eax],al
   0xf77ea884:  add    BYTE PTR [eax],al
   0xf77ea886:  add    BYTE PTR [eax],al
   0xf77ea888:  add    BYTE PTR [eax],al
   0xf77ea88a:  add    BYTE PTR [eax],al
   0xf77ea88c:  add    BYTE PTR [eax],al
   0xf77ea88e:  add    BYTE PTR [eax],al
   0xf77ea890:  add    BYTE PTR [eax],al
   0xf77ea892:  add    BYTE PTR [eax],al
   0xf77ea894:  add    BYTE PTR [eax],al
   0xf77ea896:  add    BYTE PTR [eax],al
   0xf77ea898:  add    BYTE PTR [eax],al
   0xf77ea89a:  add    BYTE PTR [eax],al
   0xf77ea89c:  add    BYTE PTR [eax],al
   0xf77ea89e:  add    BYTE PTR [eax],al
   0xf77ea8a0:  add    BYTE PTR [eax],al
   0xf77ea8a2:  add    BYTE PTR [eax],al
   0xf77ea8a4:  add    BYTE PTR [eax],al
   0xf77ea8a6:  add    BYTE PTR [eax],al
   0xf77ea8a8:  add    BYTE PTR [eax],al
   0xf77ea8aa:  add    BYTE PTR [eax],al
   0xf77ea8ac:  add    BYTE PTR [eax],al
   0xf77ea8ae:  add    BYTE PTR [eax],al
   0xf77ea8b0:  add    BYTE PTR [eax],al
   0xf77ea8b2:  add    BYTE PTR [eax],al
   0xf77ea8b4:  add    BYTE PTR [eax],al
   0xf77ea8b6:  add    BYTE PTR [eax],al
   0xf77ea8b8:  add    BYTE PTR [eax],al
   0xf77ea8ba:  add    BYTE PTR [eax],al
   0xf77ea8bc:  add    BYTE PTR [eax],al
   0xf77ea8be:  add    BYTE PTR [eax],al
   0xf77ea8c0:  add    BYTE PTR [eax],al
   0xf77ea8c2:  add    BYTE PTR [eax],al
   0xf77ea8c4:  add    BYTE PTR [eax],al
   0xf77ea8c6:  add    BYTE PTR [eax],al
   0xf77ea8c8:  add    BYTE PTR [eax],al
   0xf77ea8ca:  add    BYTE PTR [eax],al
   0xf77ea8cc:  add    BYTE PTR [eax],al
   0xf77ea8ce:  add    BYTE PTR [eax],al
   0xf77ea8d0:  add    BYTE PTR [eax],al
   0xf77ea8d2:  add    BYTE PTR [eax],al
   0xf77ea8d4:  add    BYTE PTR [eax],al
   0xf77ea8d6:  add    BYTE PTR [eax],al
   0xf77ea8d8:  add    BYTE PTR [eax],al
   0xf77ea8da:  add    BYTE PTR [eax],al
   0xf77ea8dc:  add    BYTE PTR [eax],al
   0xf77ea8de:  add    BYTE PTR [eax],al
   0xf77ea8e0:  add    BYTE PTR [eax],al
   0xf77ea8e2:  add    BYTE PTR [eax],al
   0xf77ea8e4:  add    BYTE PTR [eax],al
   0xf77ea8e6:  add    BYTE PTR [eax],al
   0xf77ea8e8:  add    BYTE PTR [eax],al
   0xf77ea8ea:  add    BYTE PTR [eax],al
   0xf77ea8ec:  add    BYTE PTR [eax],al
   0xf77ea8ee:  add    BYTE PTR [eax],al
   0xf77ea8f0:  add    BYTE PTR [eax],al
   0xf77ea8f2:  add    BYTE PTR [eax],al
   0xf77ea8f4:  add    BYTE PTR [eax],al
   0xf77ea8f6:  add    BYTE PTR [eax],al
   0xf77ea8f8:  add    BYTE PTR [eax],al
   0xf77ea8fa:  add    BYTE PTR [eax],al
   0xf77ea8fc:  add    BYTE PTR [eax],al
   0xf77ea8fe:  add    BYTE PTR [eax],al
   0xf77ea900:  add    BYTE PTR [eax],al
   0xf77ea902:  add    BYTE PTR [eax],al
   0xf77ea904:  add    BYTE PTR [eax],al
   0xf77ea906:  add    BYTE PTR [eax],al
   0xf77ea908:  add    BYTE PTR [eax],al
   0xf77ea90a:  add    BYTE PTR [eax],al
   0xf77ea90c:  add    BYTE PTR [eax],al
   0xf77ea90e:  add    BYTE PTR [eax],al
   0xf77ea910:  add    BYTE PTR [eax],al
   0xf77ea912:  add    BYTE PTR [eax],al
   0xf77ea914:  add    BYTE PTR [eax],al
   0xf77ea916:  add    BYTE PTR [eax],al
   0xf77ea918:  add    BYTE PTR [eax],al
   0xf77ea91a:  add    BYTE PTR [eax],al
   0xf77ea91c:  add    BYTE PTR [eax],al
   0xf77ea91e:  add    BYTE PTR [eax],al
   0xf77ea920:  add    BYTE PTR [eax],al
   0xf77ea922:  add    BYTE PTR [eax],al
   0xf77ea924:  add    BYTE PTR [eax],al
   0xf77ea926:  add    BYTE PTR [eax],al
   0xf77ea928:  add    BYTE PTR [eax],al
   0xf77ea92a:  add    BYTE PTR [eax],al
   0xf77ea92c:  add    BYTE PTR [eax],al
   0xf77ea92e:  add    BYTE PTR [eax],al
   0xf77ea930:  add    BYTE PTR [eax],al
   0xf77ea932:  add    BYTE PTR [eax],al
   0xf77ea934:  add    BYTE PTR [eax],al
   0xf77ea936:  add    BYTE PTR [eax],al
   0xf77ea938:  add    BYTE PTR [eax],al
   0xf77ea93a:  add    BYTE PTR [eax],al
   0xf77ea93c:  add    BYTE PTR [eax],al
   0xf77ea93e:  add    BYTE PTR [eax],al
   0xf77ea940:  add    BYTE PTR [eax],al
   0xf77ea942:  add    BYTE PTR [eax],al
   0xf77ea944:  add    BYTE PTR [eax],al
   0xf77ea946:  add    BYTE PTR [eax],al
   0xf77ea948:  add    BYTE PTR [eax],al
   0xf77ea94a:  add    BYTE PTR [eax],al
   0xf77ea94c:  add    BYTE PTR [eax],al
   0xf77ea94e:  add    BYTE PTR [eax],al
   0xf77ea950:  add    BYTE PTR [eax],al
   0xf77ea952:  add    BYTE PTR [eax],al
   0xf77ea954:  add    BYTE PTR [eax],al
   0xf77ea956:  add    BYTE PTR [eax],al
   0xf77ea958:  add    BYTE PTR [eax],al
   0xf77ea95a:  add    BYTE PTR [eax],al
   0xf77ea95c:  add    BYTE PTR [eax],al
   0xf77ea95e:  add    BYTE PTR [eax],al
   0xf77ea960:  add    BYTE PTR [eax],al
   0xf77ea962:  add    BYTE PTR [eax],al
   0xf77ea964:  add    BYTE PTR [eax],al
   0xf77ea966:  add    BYTE PTR [eax],al
   0xf77ea968:  add    BYTE PTR [eax],al
   0xf77ea96a:  add    BYTE PTR [eax],al
   0xf77ea96c:  add    BYTE PTR [eax],al
   0xf77ea96e:  add    BYTE PTR [eax],al
   0xf77ea970:  add    BYTE PTR [eax],al
   0xf77ea972:  add    BYTE PTR [eax],al
   0xf77ea974:  add    BYTE PTR [eax],al
   0xf77ea976:  add    BYTE PTR [eax],al
   0xf77ea978:  add    BYTE PTR [eax],al
   0xf77ea97a:  add    BYTE PTR [eax],al
   0xf77ea97c:  add    BYTE PTR [eax],al
   0xf77ea97e:  add    BYTE PTR [eax],al
   0xf77ea980:  add    BYTE PTR [eax],al
   0xf77ea982:  add    BYTE PTR [eax],al
   0xf77ea984:  add    BYTE PTR [eax],al
   0xf77ea986:  add    BYTE PTR [eax],al
   0xf77ea988:  add    BYTE PTR [eax],al
   0xf77ea98a:  add    BYTE PTR [eax],al
   0xf77ea98c:  add    BYTE PTR [eax],al
   0xf77ea98e:  add    BYTE PTR [eax],al
   0xf77ea990:  add    BYTE PTR [eax],al
   0xf77ea992:  add    BYTE PTR [eax],al
   0xf77ea994:  add    BYTE PTR [eax],al
   0xf77ea996:  add    BYTE PTR [eax],al
   0xf77ea998:  add    BYTE PTR [eax],al
   0xf77ea99a:  add    BYTE PTR [eax],al
   0xf77ea99c:  add    BYTE PTR [eax],al
   0xf77ea99e:  add    BYTE PTR [eax],al
   0xf77ea9a0:  add    BYTE PTR [eax],al
   0xf77ea9a2:  add    BYTE PTR [eax],al
   0xf77ea9a4:  add    BYTE PTR [eax],al
   0xf77ea9a6:  add    BYTE PTR [eax],al
   0xf77ea9a8:  add    BYTE PTR [eax],al
   0xf77ea9aa:  add    BYTE PTR [eax],al
   0xf77ea9ac:  add    BYTE PTR [eax],al
   0xf77ea9ae:  add    BYTE PTR [eax],al
   0xf77ea9b0:  add    BYTE PTR [eax],al
   0xf77ea9b2:  add    BYTE PTR [eax],al
   0xf77ea9b4:  add    BYTE PTR [eax],al
   0xf77ea9b6:  add    BYTE PTR [eax],al
   0xf77ea9b8:  add    BYTE PTR [eax],al
   0xf77ea9ba:  add    BYTE PTR [eax],al
   0xf77ea9bc:  add    BYTE PTR [eax],al
   0xf77ea9be:  add    BYTE PTR [eax],al
   0xf77ea9c0:  add    BYTE PTR [eax],al
   0xf77ea9c2:  add    BYTE PTR [eax],al
   0xf77ea9c4:  add    BYTE PTR [eax],al
   0xf77ea9c6:  add    BYTE PTR [eax],al
   0xf77ea9c8:  add    BYTE PTR [eax],al
   0xf77ea9ca:  add    BYTE PTR [eax],al
   0xf77ea9cc:  add    BYTE PTR [eax],al
   0xf77ea9ce:  add    BYTE PTR [eax],al
   0xf77ea9d0:  add    BYTE PTR [eax],al
   0xf77ea9d2:  add    BYTE PTR [eax],al
   0xf77ea9d4:  add    BYTE PTR [eax],al
   0xf77ea9d6:  add    BYTE PTR [eax],al
   0xf77ea9d8:  add    BYTE PTR [eax],al
   0xf77ea9da:  add    BYTE PTR [eax],al
   0xf77ea9dc:  add    BYTE PTR [eax],al
   0xf77ea9de:  add    BYTE PTR [eax],al
   0xf77ea9e0:  add    BYTE PTR [eax],al
   0xf77ea9e2:  add    BYTE PTR [eax],al
   0xf77ea9e4:  add    BYTE PTR [eax],al
   0xf77ea9e6:  add    BYTE PTR [eax],al
   0xf77ea9e8:  add    BYTE PTR [eax],al
   0xf77ea9ea:  add    BYTE PTR [eax],al
   0xf77ea9ec:  add    BYTE PTR [eax],al
   0xf77ea9ee:  add    BYTE PTR [eax],al
   0xf77ea9f0:  add    BYTE PTR [eax],al
   0xf77ea9f2:  add    BYTE PTR [eax],al
   0xf77ea9f4:  add    BYTE PTR [eax],al
   0xf77ea9f6:  add    BYTE PTR [eax],al
   0xf77ea9f8:  add    BYTE PTR [eax],al
   0xf77ea9fa:  add    BYTE PTR [eax],al
   0xf77ea9fc:  add    BYTE PTR [eax],al
   0xf77ea9fe:  add    BYTE PTR [eax],al
   0xf77eaa00:  add    BYTE PTR [eax],al
   0xf77eaa02:  add    BYTE PTR [eax],al
   0xf77eaa04:  add    BYTE PTR [eax],al
   0xf77eaa06:  add    BYTE PTR [eax],al
   0xf77eaa08:  add    BYTE PTR [eax],al
   0xf77eaa0a:  add    BYTE PTR [eax],al
   0xf77eaa0c:  add    BYTE PTR [eax],al
   0xf77eaa0e:  add    BYTE PTR [eax],al
   0xf77eaa10:  add    BYTE PTR [eax],al
   0xf77eaa12:  add    BYTE PTR [eax],al
   0xf77eaa14:  add    BYTE PTR [eax],al
   0xf77eaa16:  add    BYTE PTR [eax],al
   0xf77eaa18:  add    BYTE PTR [eax],al
   0xf77eaa1a:  add    BYTE PTR [eax],al
   0xf77eaa1c:  add    BYTE PTR [eax],al
   0xf77eaa1e:  add    BYTE PTR [eax],al
   0xf77eaa20:  add    BYTE PTR [eax],al
   0xf77eaa22:  add    BYTE PTR [eax],al
   0xf77eaa24:  add    BYTE PTR [eax],al
   0xf77eaa26:  add    BYTE PTR [eax],al
   0xf77eaa28:  add    BYTE PTR [eax],al
   0xf77eaa2a:  add    BYTE PTR [eax],al
   0xf77eaa2c:  add    BYTE PTR [eax],al
   0xf77eaa2e:  add    BYTE PTR [eax],al
   0xf77eaa30:  add    BYTE PTR [eax],al
   0xf77eaa32:  add    BYTE PTR [eax],al
   0xf77eaa34:  add    BYTE PTR [eax],al
   0xf77eaa36:  add    BYTE PTR [eax],al
   0xf77eaa38:  add    BYTE PTR [eax],al
   0xf77eaa3a:  add    BYTE PTR [eax],al
   0xf77eaa3c:  add    BYTE PTR [eax],al
   0xf77eaa3e:  add    BYTE PTR [eax],al
   0xf77eaa40:  add    BYTE PTR [eax],al
   0xf77eaa42:  add    BYTE PTR [eax],al
   0xf77eaa44:  add    BYTE PTR [eax],al
   0xf77eaa46:  add    BYTE PTR [eax],al
   0xf77eaa48:  add    BYTE PTR [eax],al
   0xf77eaa4a:  add    BYTE PTR [eax],al
   0xf77eaa4c:  add    BYTE PTR [eax],al
   0xf77eaa4e:  add    BYTE PTR [eax],al
   0xf77eaa50:  add    BYTE PTR [eax],al
   0xf77eaa52:  add    BYTE PTR [eax],al
   0xf77eaa54:  add    BYTE PTR [eax],al
   0xf77eaa56:  add    BYTE PTR [eax],al
   0xf77eaa58:  add    BYTE PTR [eax],al
   0xf77eaa5a:  add    BYTE PTR [eax],al
   0xf77eaa5c:  add    BYTE PTR [eax],al
   0xf77eaa5e:  add    BYTE PTR [eax],al
   0xf77eaa60:  add    BYTE PTR [eax],al
   0xf77eaa62:  add    BYTE PTR [eax],al
   0xf77eaa64:  add    BYTE PTR [eax],al
   0xf77eaa66:  add    BYTE PTR [eax],al
   0xf77eaa68:  add    BYTE PTR [eax],al
   0xf77eaa6a:  add    BYTE PTR [eax],al
   0xf77eaa6c:  add    BYTE PTR [eax],al
   0xf77eaa6e:  add    BYTE PTR [eax],al
   0xf77eaa70:  add    BYTE PTR [eax],al
   0xf77eaa72:  add    BYTE PTR [eax],al
   0xf77eaa74:  add    BYTE PTR [eax],al
   0xf77eaa76:  add    BYTE PTR [eax],al
   0xf77eaa78:  add    BYTE PTR [eax],al
   0xf77eaa7a:  add    BYTE PTR [eax],al
   0xf77eaa7c:  add    BYTE PTR [eax],al
   0xf77eaa7e:  add    BYTE PTR [eax],al
   0xf77eaa80:  add    BYTE PTR [eax],al
   0xf77eaa82:  add    BYTE PTR [eax],al
   0xf77eaa84:  add    BYTE PTR [eax],al
   0xf77eaa86:  add    BYTE PTR [eax],al
   0xf77eaa88:  add    BYTE PTR [eax],al
   0xf77eaa8a:  add    BYTE PTR [eax],al
   0xf77eaa8c:  add    BYTE PTR [eax],al
   0xf77eaa8e:  add    BYTE PTR [eax],al
   0xf77eaa90:  add    BYTE PTR [eax],al
   0xf77eaa92:  add    BYTE PTR [eax],al
   0xf77eaa94:  add    BYTE PTR [eax],al
   0xf77eaa96:  add    BYTE PTR [eax],al
   0xf77eaa98:  add    BYTE PTR [eax],al
   0xf77eaa9a:  add    BYTE PTR [eax],al
   0xf77eaa9c:  add    BYTE PTR [eax],al
   0xf77eaa9e:  add    BYTE PTR [eax],al
   0xf77eaaa0:  add    BYTE PTR [eax],al
   0xf77eaaa2:  add    BYTE PTR [eax],al
   0xf77eaaa4:  add    BYTE PTR [eax],al
   0xf77eaaa6:  add    BYTE PTR [eax],al
   0xf77eaaa8:  add    BYTE PTR [eax],al
   0xf77eaaaa:  add    BYTE PTR [eax],al
   0xf77eaaac:  add    BYTE PTR [eax],al
   0xf77eaaae:  add    BYTE PTR [eax],al
   0xf77eaab0:  add    BYTE PTR [eax],al
   0xf77eaab2:  add    BYTE PTR [eax],al
   0xf77eaab4:  add    BYTE PTR [eax],al
   0xf77eaab6:  add    BYTE PTR [eax],al
   0xf77eaab8:  add    BYTE PTR [eax],al
   0xf77eaaba:  add    BYTE PTR [eax],al
   0xf77eaabc:  add    BYTE PTR [eax],al
   0xf77eaabe:  add    BYTE PTR [eax],al
   0xf77eaac0:  add    BYTE PTR [eax],al
   0xf77eaac2:  add    BYTE PTR [eax],al
   0xf77eaac4:  add    BYTE PTR [eax],al
   0xf77eaac6:  add    BYTE PTR [eax],al
   0xf77eaac8:  add    BYTE PTR [eax],al
   0xf77eaaca:  add    BYTE PTR [eax],al
   0xf77eaacc:  add    BYTE PTR [eax],al
   0xf77eaace:  add    BYTE PTR [eax],al
   0xf77eaad0:  add    BYTE PTR [eax],al
   0xf77eaad2:  add    BYTE PTR [eax],al
   0xf77eaad4:  add    BYTE PTR [eax],al
   0xf77eaad6:  add    BYTE PTR [eax],al
   0xf77eaad8:  add    BYTE PTR [eax],al
   0xf77eaada:  add    BYTE PTR [eax],al
   0xf77eaadc:  add    BYTE PTR [eax],al
   0xf77eaade:  add    BYTE PTR [eax],al
   0xf77eaae0:  add    BYTE PTR [eax],al
   0xf77eaae2:  add    BYTE PTR [eax],al
   0xf77eaae4:  add    BYTE PTR [eax],al
   0xf77eaae6:  add    BYTE PTR [eax],al
   0xf77eaae8:  add    BYTE PTR [eax],al
   0xf77eaaea:  add    BYTE PTR [eax],al
   0xf77eaaec:  add    BYTE PTR [eax],al
   0xf77eaaee:  add    BYTE PTR [eax],al
   0xf77eaaf0:  add    BYTE PTR [eax],al
   0xf77eaaf2:  add    BYTE PTR [eax],al
   0xf77eaaf4:  add    BYTE PTR [eax],al
   0xf77eaaf6:  add    BYTE PTR [eax],al
   0xf77eaaf8:  add    BYTE PTR [eax],al
   0xf77eaafa:  add    BYTE PTR [eax],al
   0xf77eaafc:  add    BYTE PTR [eax],al
   0xf77eaafe:  add    BYTE PTR [eax],al
   0xf77eab00:  add    BYTE PTR [eax],al
   0xf77eab02:  add    BYTE PTR [eax],al
   0xf77eab04:  add    BYTE PTR [eax],al
   0xf77eab06:  add    BYTE PTR [eax],al
   0xf77eab08:  add    BYTE PTR [eax],al
   0xf77eab0a:  add    BYTE PTR [eax],al
   0xf77eab0c:  add    BYTE PTR [eax],al
   0xf77eab0e:  add    BYTE PTR [eax],al
   0xf77eab10:  add    BYTE PTR [eax],al
   0xf77eab12:  add    BYTE PTR [eax],al
   0xf77eab14:  add    BYTE PTR [eax],al
   0xf77eab16:  add    BYTE PTR [eax],al
   0xf77eab18:  add    BYTE PTR [eax],al
   0xf77eab1a:  add    BYTE PTR [eax],al
   0xf77eab1c:  add    BYTE PTR [eax],al
   0xf77eab1e:  add    BYTE PTR [eax],al
   0xf77eab20:  add    BYTE PTR [eax],al
   0xf77eab22:  add    BYTE PTR [eax],al
   0xf77eab24:  add    BYTE PTR [eax],al
   0xf77eab26:  add    BYTE PTR [eax],al
   0xf77eab28:  add    BYTE PTR [eax],al
   0xf77eab2a:  add    BYTE PTR [eax],al
   0xf77eab2c:  add    BYTE PTR [eax],al
   0xf77eab2e:  add    BYTE PTR [eax],al
   0xf77eab30:  add    BYTE PTR [eax],al
   0xf77eab32:  add    BYTE PTR [eax],al
   0xf77eab34:  add    BYTE PTR [eax],al
   0xf77eab36:  add    BYTE PTR [eax],al
   0xf77eab38:  add    BYTE PTR [eax],al
   0xf77eab3a:  add    BYTE PTR [eax],al
   0xf77eab3c:  add    BYTE PTR [eax],al
   0xf77eab3e:  add    BYTE PTR [eax],al
   0xf77eab40:  add    BYTE PTR [eax],al
   0xf77eab42:  add    BYTE PTR [eax],al
   0xf77eab44:  add    BYTE PTR [eax],al
   0xf77eab46:  add    BYTE PTR [eax],al
   0xf77eab48:  add    BYTE PTR [eax],al
   0xf77eab4a:  add    BYTE PTR [eax],al
   0xf77eab4c:  add    BYTE PTR [eax],al
   0xf77eab4e:  add    BYTE PTR [eax],al
   0xf77eab50:  add    BYTE PTR [eax],al
   0xf77eab52:  add    BYTE PTR [eax],al
   0xf77eab54:  add    BYTE PTR [eax],al
   0xf77eab56:  add    BYTE PTR [eax],al
   0xf77eab58:  add    BYTE PTR [eax],al
   0xf77eab5a:  add    BYTE PTR [eax],al
   0xf77eab5c:  add    BYTE PTR [eax],al
   0xf77eab5e:  add    BYTE PTR [eax],al
   0xf77eab60:  add    BYTE PTR [eax],al
   0xf77eab62:  add    BYTE PTR [eax],al
   0xf77eab64:  add    BYTE PTR [eax],al
   0xf77eab66:  add    BYTE PTR [eax],al
   0xf77eab68:  add    BYTE PTR [eax],al
   0xf77eab6a:  add    BYTE PTR [eax],al
   0xf77eab6c:  add    BYTE PTR [eax],al
   0xf77eab6e:  add    BYTE PTR [eax],al
   0xf77eab70:  add    BYTE PTR [eax],al
   0xf77eab72:  add    BYTE PTR [eax],al
   0xf77eab74:  add    BYTE PTR [eax],al
   0xf77eab76:  add    BYTE PTR [eax],al
   0xf77eab78:  add    BYTE PTR [eax],al
   0xf77eab7a:  add    BYTE PTR [eax],al
   0xf77eab7c:  add    BYTE PTR [eax],al
   0xf77eab7e:  add    BYTE PTR [eax],al
   0xf77eab80:  add    BYTE PTR [eax],al
   0xf77eab82:  add    BYTE PTR [eax],al
   0xf77eab84:  add    BYTE PTR [eax],al
   0xf77eab86:  add    BYTE PTR [eax],al
   0xf77eab88:  add    BYTE PTR [eax],al
   0xf77eab8a:  add    BYTE PTR [eax],al
   0xf77eab8c:  add    BYTE PTR [eax],al
   0xf77eab8e:  add    BYTE PTR [eax],al
   0xf77eab90:  add    BYTE PTR [eax],al
   0xf77eab92:  add    BYTE PTR [eax],al
   0xf77eab94:  add    BYTE PTR [eax],al
   0xf77eab96:  add    BYTE PTR [eax],al
   0xf77eab98:  add    BYTE PTR [eax],al
   0xf77eab9a:  add    BYTE PTR [eax],al
   0xf77eab9c:  add    BYTE PTR [eax],al
   0xf77eab9e:  add    BYTE PTR [eax],al
   0xf77eaba0:  add    BYTE PTR [eax],al
   0xf77eaba2:  add    BYTE PTR [eax],al
   0xf77eaba4:  add    BYTE PTR [eax],al
   0xf77eaba6:  add    BYTE PTR [eax],al
   0xf77eaba8:  add    BYTE PTR [eax],al
   0xf77eabaa:  add    BYTE PTR [eax],al
   0xf77eabac:  add    BYTE PTR [eax],al
   0xf77eabae:  add    BYTE PTR [eax],al
   0xf77eabb0:  add    BYTE PTR [eax],al
   0xf77eabb2:  add    BYTE PTR [eax],al
   0xf77eabb4:  add    BYTE PTR [eax],al
   0xf77eabb6:  add    BYTE PTR [eax],al
   0xf77eabb8:  add    BYTE PTR [eax],al
   0xf77eabba:  add    BYTE PTR [eax],al
   0xf77eabbc:  add    BYTE PTR [eax],al
   0xf77eabbe:  add    BYTE PTR [eax],al
   0xf77eabc0:  add    BYTE PTR [eax],al
   0xf77eabc2:  add    BYTE PTR [eax],al
   0xf77eabc4:  add    BYTE PTR [eax],al
   0xf77eabc6:  add    BYTE PTR [eax],al
   0xf77eabc8:  add    BYTE PTR [eax],al
   0xf77eabca:  add    BYTE PTR [eax],al
   0xf77eabcc:  add    BYTE PTR [eax],al
   0xf77eabce:  add    BYTE PTR [eax],al
   0xf77eabd0:  add    BYTE PTR [eax],al
   0xf77eabd2:  add    BYTE PTR [eax],al
   0xf77eabd4:  add    BYTE PTR [eax],al
   0xf77eabd6:  add    BYTE PTR [eax],al
   0xf77eabd8:  add    BYTE PTR [eax],al
   0xf77eabda:  add    BYTE PTR [eax],al
   0xf77eabdc:  add    BYTE PTR [eax],al
   0xf77eabde:  add    BYTE PTR [eax],al
   0xf77eabe0:  add    BYTE PTR [eax],al
   0xf77eabe2:  add    BYTE PTR [eax],al
   0xf77eabe4:  add    BYTE PTR [eax],al
   0xf77eabe6:  add    BYTE PTR [eax],al
   0xf77eabe8:  add    BYTE PTR [eax],al
   0xf77eabea:  add    BYTE PTR [eax],al
   0xf77eabec:  add    BYTE PTR [eax],al
   0xf77eabee:  add    BYTE PTR [eax],al
   0xf77eabf0:  add    BYTE PTR [eax],al
   0xf77eabf2:  add    BYTE PTR [eax],al
   0xf77eabf4:  add    BYTE PTR [eax],al
   0xf77eabf6:  add    BYTE PTR [eax],al
   0xf77eabf8:  add    BYTE PTR [eax],al
   0xf77eabfa:  add    BYTE PTR [eax],al
   0xf77eabfc:  add    BYTE PTR [eax],al
   0xf77eabfe:  add    BYTE PTR [eax],al
   0xf77eac00:  add    BYTE PTR [eax],al
   0xf77eac02:  add    BYTE PTR [eax],al
   0xf77eac04:  add    BYTE PTR [eax],al
   0xf77eac06:  add    BYTE PTR [eax],al
   0xf77eac08:  add    BYTE PTR [eax],al
   0xf77eac0a:  add    BYTE PTR [eax],al
   0xf77eac0c:  add    BYTE PTR [eax],al
   0xf77eac0e:  add    BYTE PTR [eax],al
   0xf77eac10:  add    BYTE PTR [eax],al
   0xf77eac12:  add    BYTE PTR [eax],al
   0xf77eac14:  add    BYTE PTR [eax],al
   0xf77eac16:  add    BYTE PTR [eax],al
   0xf77eac18:  add    BYTE PTR [eax],al
   0xf77eac1a:  add    BYTE PTR [eax],al
   0xf77eac1c:  add    BYTE PTR [eax],al
   0xf77eac1e:  add    BYTE PTR [eax],al
   0xf77eac20:  add    BYTE PTR [eax],al
   0xf77eac22:  add    BYTE PTR [eax],al
   0xf77eac24:  add    BYTE PTR [eax],al
   0xf77eac26:  add    BYTE PTR [eax],al
   0xf77eac28:  add    BYTE PTR [eax],al
   0xf77eac2a:  add    BYTE PTR [eax],al
   0xf77eac2c:  add    BYTE PTR [eax],al
   0xf77eac2e:  add    BYTE PTR [eax],al
   0xf77eac30:  add    BYTE PTR [eax],al
   0xf77eac32:  add    BYTE PTR [eax],al
   0xf77eac34:  add    BYTE PTR [eax],al
   0xf77eac36:  add    BYTE PTR [eax],al
   0xf77eac38:  add    BYTE PTR [eax],al
   0xf77eac3a:  add    BYTE PTR [eax],al
   0xf77eac3c:  add    BYTE PTR [eax],al
   0xf77eac3e:  add    BYTE PTR [eax],al
   0xf77eac40:  add    BYTE PTR [eax],al
   0xf77eac42:  add    BYTE PTR [eax],al
   0xf77eac44:  add    BYTE PTR [eax],al
   0xf77eac46:  add    BYTE PTR [eax],al
   0xf77eac48:  add    BYTE PTR [eax],al
   0xf77eac4a:  add    BYTE PTR [eax],al
   0xf77eac4c:  add    BYTE PTR [eax],al
   0xf77eac4e:  add    BYTE PTR [eax],al
   0xf77eac50:  add    BYTE PTR [eax],al
   0xf77eac52:  add    BYTE PTR [eax],al
   0xf77eac54:  add    BYTE PTR [eax],al
   0xf77eac56:  add    BYTE PTR [eax],al
   0xf77eac58:  add    BYTE PTR [eax],al
   0xf77eac5a:  add    BYTE PTR [eax],al
   0xf77eac5c:  add    BYTE PTR [eax],al
   0xf77eac5e:  add    BYTE PTR [eax],al
   0xf77eac60:  add    BYTE PTR [eax],al
   0xf77eac62:  add    BYTE PTR [eax],al
   0xf77eac64:  add    BYTE PTR [eax],al
   0xf77eac66:  add    BYTE PTR [eax],al
   0xf77eac68:  add    BYTE PTR [eax],al
   0xf77eac6a:  add    BYTE PTR [eax],al
   0xf77eac6c:  add    BYTE PTR [eax],al
   0xf77eac6e:  add    BYTE PTR [eax],al
   0xf77eac70:  add    BYTE PTR [eax],al
   0xf77eac72:  add    BYTE PTR [eax],al
   0xf77eac74:  add    BYTE PTR [eax],al
   0xf77eac76:  add    BYTE PTR [eax],al
   0xf77eac78:  add    BYTE PTR [eax],al
   0xf77eac7a:  add    BYTE PTR [eax],al
   0xf77eac7c:  add    BYTE PTR [eax],al
   0xf77eac7e:  add    BYTE PTR [eax],al
   0xf77eac80:  add    BYTE PTR [eax],al
   0xf77eac82:  add    BYTE PTR [eax],al
   0xf77eac84:  add    BYTE PTR [eax],al
   0xf77eac86:  add    BYTE PTR [eax],al
   0xf77eac88:  add    BYTE PTR [eax],al
   0xf77eac8a:  add    BYTE PTR [eax],al
   0xf77eac8c:  add    BYTE PTR [eax],al
   0xf77eac8e:  add    BYTE PTR [eax],al
   0xf77eac90:  add    BYTE PTR [eax],al
   0xf77eac92:  add    BYTE PTR [eax],al
   0xf77eac94:  add    BYTE PTR [eax],al
   0xf77eac96:  add    BYTE PTR [eax],al
   0xf77eac98:  add    BYTE PTR [eax],al
   0xf77eac9a:  add    BYTE PTR [eax],al
   0xf77eac9c:  add    BYTE PTR [eax],al
   0xf77eac9e:  add    BYTE PTR [eax],al
   0xf77eaca0:  add    BYTE PTR [eax],al
   0xf77eaca2:  add    BYTE PTR [eax],al
   0xf77eaca4:  add    BYTE PTR [eax],al
   0xf77eaca6:  add    BYTE PTR [eax],al
   0xf77eaca8:  add    BYTE PTR [eax],al
   0xf77eacaa:  add    BYTE PTR [eax],al
   0xf77eacac:  add    BYTE PTR [eax],al
   0xf77eacae:  add    BYTE PTR [eax],al
   0xf77eacb0:  add    BYTE PTR [eax],al
   0xf77eacb2:  add    BYTE PTR [eax],al
   0xf77eacb4:  add    BYTE PTR [eax],al
   0xf77eacb6:  add    BYTE PTR [eax],al
   0xf77eacb8:  add    BYTE PTR [eax],al
   0xf77eacba:  add    BYTE PTR [eax],al
   0xf77eacbc:  add    BYTE PTR [eax],al
   0xf77eacbe:  add    BYTE PTR [eax],al
   0xf77eacc0:  add    BYTE PTR [eax],al
   0xf77eacc2:  add    BYTE PTR [eax],al
   0xf77eacc4:  add    BYTE PTR [eax],al
   0xf77eacc6:  add    BYTE PTR [eax],al
   0xf77eacc8:  add    BYTE PTR [eax],al
   0xf77eacca:  add    BYTE PTR [eax],al
   0xf77eaccc:  add    BYTE PTR [eax],al
   0xf77eacce:  add    BYTE PTR [eax],al
   0xf77eacd0:  add    BYTE PTR [eax],al
   0xf77eacd2:  add    BYTE PTR [eax],al
   0xf77eacd4:  add    BYTE PTR [eax],al
   0xf77eacd6:  add    BYTE PTR [eax],al
   0xf77eacd8:  add    BYTE PTR [eax],al
   0xf77eacda:  add    BYTE PTR [eax],al
   0xf77eacdc:  add    BYTE PTR [eax],al
   0xf77eacde:  add    BYTE PTR [eax],al
   0xf77eace0:  add    BYTE PTR [eax],al
   0xf77eace2:  add    BYTE PTR [eax],al
   0xf77eace4:  add    BYTE PTR [eax],al
   0xf77eace6:  add    BYTE PTR [eax],al
   0xf77eace8:  add    BYTE PTR [eax],al
   0xf77eacea:  add    BYTE PTR [eax],al
   0xf77eacec:  add    BYTE PTR [eax],al
   0xf77eacee:  add    BYTE PTR [eax],al
   0xf77eacf0:  add    BYTE PTR [eax],al
   0xf77eacf2:  add    BYTE PTR [eax],al
   0xf77eacf4:  add    BYTE PTR [eax],al
   0xf77eacf6:  add    BYTE PTR [eax],al
   0xf77eacf8:  add    BYTE PTR [eax],al
   0xf77eacfa:  add    BYTE PTR [eax],al
   0xf77eacfc:  add    BYTE PTR [eax],al
   0xf77eacfe:  add    BYTE PTR [eax],al
   0xf77ead00:  add    BYTE PTR [eax],al
   0xf77ead02:  add    BYTE PTR [eax],al
   0xf77ead04:  add    BYTE PTR [eax],al
   0xf77ead06:  add    BYTE PTR [eax],al
   0xf77ead08:  add    BYTE PTR [eax],al
   0xf77ead0a:  add    BYTE PTR [eax],al
   0xf77ead0c:  add    BYTE PTR [eax],al
   0xf77ead0e:  add    BYTE PTR [eax],al
   0xf77ead10:  add    BYTE PTR [eax],al
   0xf77ead12:  add    BYTE PTR [eax],al
   0xf77ead14:  add    BYTE PTR [eax],al
   0xf77ead16:  add    BYTE PTR [eax],al
   0xf77ead18:  add    BYTE PTR [eax],al
   0xf77ead1a:  add    BYTE PTR [eax],al
   0xf77ead1c:  add    BYTE PTR [eax],al
   0xf77ead1e:  add    BYTE PTR [eax],al
   0xf77ead20:  add    BYTE PTR [eax],al
   0xf77ead22:  add    BYTE PTR [eax],al
   0xf77ead24:  add    BYTE PTR [eax],al
   0xf77ead26:  add    BYTE PTR [eax],al
   0xf77ead28:  add    BYTE PTR [eax],al
   0xf77ead2a:  add    BYTE PTR [eax],al
   0xf77ead2c:  add    BYTE PTR [eax],al
   0xf77ead2e:  add    BYTE PTR [eax],al
   0xf77ead30:  add    BYTE PTR [eax],al
   0xf77ead32:  add    BYTE PTR [eax],al
   0xf77ead34:  add    BYTE PTR [eax],al
   0xf77ead36:  add    BYTE PTR [eax],al
   0xf77ead38:  add    BYTE PTR [eax],al
   0xf77ead3a:  add    BYTE PTR [eax],al
   0xf77ead3c:  add    BYTE PTR [eax],al
   0xf77ead3e:  add    BYTE PTR [eax],al
   0xf77ead40:  add    BYTE PTR [eax],al
   0xf77ead42:  add    BYTE PTR [eax],al
   0xf77ead44:  add    BYTE PTR [eax],al
   0xf77ead46:  add    BYTE PTR [eax],al
   0xf77ead48:  add    BYTE PTR [eax],al
   0xf77ead4a:  add    BYTE PTR [eax],al
   0xf77ead4c:  add    BYTE PTR [eax],al
   0xf77ead4e:  add    BYTE PTR [eax],al
   0xf77ead50:  add    BYTE PTR [eax],al
   0xf77ead52:  add    BYTE PTR [eax],al
   0xf77ead54:  add    BYTE PTR [eax],al
   0xf77ead56:  add    BYTE PTR [eax],al
   0xf77ead58:  add    BYTE PTR [eax],al
   0xf77ead5a:  add    BYTE PTR [eax],al
   0xf77ead5c:  add    BYTE PTR [eax],al
   0xf77ead5e:  add    BYTE PTR [eax],al
   0xf77ead60:  add    BYTE PTR [eax],al
   0xf77ead62:  add    BYTE PTR [eax],al
   0xf77ead64:  add    BYTE PTR [eax],al
   0xf77ead66:  add    BYTE PTR [eax],al
   0xf77ead68:  add    BYTE PTR [eax],al
   0xf77ead6a:  add    BYTE PTR [eax],al
   0xf77ead6c:  add    BYTE PTR [eax],al
   0xf77ead6e:  add    BYTE PTR [eax],al
   0xf77ead70:  add    BYTE PTR [eax],al
   0xf77ead72:  add    BYTE PTR [eax],al
   0xf77ead74:  add    BYTE PTR [eax],al
   0xf77ead76:  add    BYTE PTR [eax],al
   0xf77ead78:  add    BYTE PTR [eax],al
   0xf77ead7a:  add    BYTE PTR [eax],al
   0xf77ead7c:  add    BYTE PTR [eax],al
   0xf77ead7e:  add    BYTE PTR [eax],al
   0xf77ead80:  add    BYTE PTR [eax],al
   0xf77ead82:  add    BYTE PTR [eax],al
   0xf77ead84:  add    BYTE PTR [eax],al
   0xf77ead86:  add    BYTE PTR [eax],al
   0xf77ead88:  add    BYTE PTR [eax],al
   0xf77ead8a:  add    BYTE PTR [eax],al
   0xf77ead8c:  add    BYTE PTR [eax],al
   0xf77ead8e:  add    BYTE PTR [eax],al
   0xf77ead90:  add    BYTE PTR [eax],al
   0xf77ead92:  add    BYTE PTR [eax],al
   0xf77ead94:  add    BYTE PTR [eax],al
   0xf77ead96:  add    BYTE PTR [eax],al
   0xf77ead98:  add    BYTE PTR [eax],al
   0xf77ead9a:  add    BYTE PTR [eax],al
   0xf77ead9c:  add    BYTE PTR [eax],al
   0xf77ead9e:  add    BYTE PTR [eax],al
   0xf77eada0:  add    BYTE PTR [eax],al
   0xf77eada2:  add    BYTE PTR [eax],al
   0xf77eada4:  add    BYTE PTR [eax],al
   0xf77eada6:  add    BYTE PTR [eax],al
   0xf77eada8:  add    BYTE PTR [eax],al
   0xf77eadaa:  add    BYTE PTR [eax],al
   0xf77eadac:  add    BYTE PTR [eax],al
   0xf77eadae:  add    BYTE PTR [eax],al
   0xf77eadb0:  add    BYTE PTR [eax],al
   0xf77eadb2:  add    BYTE PTR [eax],al
   0xf77eadb4:  add    BYTE PTR [eax],al
   0xf77eadb6:  add    BYTE PTR [eax],al
   0xf77eadb8:  add    BYTE PTR [eax],al
   0xf77eadba:  add    BYTE PTR [eax],al
   0xf77eadbc:  add    BYTE PTR [eax],al
   0xf77eadbe:  add    BYTE PTR [eax],al
   0xf77eadc0:  add    BYTE PTR [eax],al
   0xf77eadc2:  add    BYTE PTR [eax],al
   0xf77eadc4:  add    BYTE PTR [eax],al
   0xf77eadc6:  add    BYTE PTR [eax],al
   0xf77eadc8:  add    BYTE PTR [eax],al
   0xf77eadca:  add    BYTE PTR [eax],al
   0xf77eadcc:  add    BYTE PTR [eax],al
   0xf77eadce:  add    BYTE PTR [eax],al
   0xf77eadd0:  add    BYTE PTR [eax],al
   0xf77eadd2:  add    BYTE PTR [eax],al
   0xf77eadd4:  add    BYTE PTR [eax],al
   0xf77eadd6:  add    BYTE PTR [eax],al
   0xf77eadd8:  add    BYTE PTR [eax],al
   0xf77eadda:  add    BYTE PTR [eax],al
   0xf77eaddc:  add    BYTE PTR [eax],al
   0xf77eadde:  add    BYTE PTR [eax],al
   0xf77eade0:  add    BYTE PTR [eax],al
   0xf77eade2:  add    BYTE PTR [eax],al
   0xf77eade4:  add    BYTE PTR [eax],al
   0xf77eade6:  add    BYTE PTR [eax],al
   0xf77eade8:  add    BYTE PTR [eax],al
   0xf77eadea:  add    BYTE PTR [eax],al
   0xf77eadec:  add    BYTE PTR [eax],al
   0xf77eadee:  add    BYTE PTR [eax],al
   0xf77eadf0:  add    BYTE PTR [eax],al
   0xf77eadf2:  add    BYTE PTR [eax],al
   0xf77eadf4:  add    BYTE PTR [eax],al
   0xf77eadf6:  add    BYTE PTR [eax],al
   0xf77eadf8:  add    BYTE PTR [eax],al
   0xf77eadfa:  add    BYTE PTR [eax],al
   0xf77eadfc:  add    BYTE PTR [eax],al
   0xf77eadfe:  add    BYTE PTR [eax],al
   0xf77eae00:  add    BYTE PTR [eax],al
   0xf77eae02:  add    BYTE PTR [eax],al
   0xf77eae04:  add    BYTE PTR [eax],al
   0xf77eae06:  add    BYTE PTR [eax],al
   0xf77eae08:  add    BYTE PTR [eax],al
   0xf77eae0a:  add    BYTE PTR [eax],al
   0xf77eae0c:  add    BYTE PTR [eax],al
   0xf77eae0e:  add    BYTE PTR [eax],al
   0xf77eae10:  add    BYTE PTR [eax],al
   0xf77eae12:  add    BYTE PTR [eax],al
   0xf77eae14:  add    BYTE PTR [eax],al
   0xf77eae16:  add    BYTE PTR [eax],al
   0xf77eae18:  add    BYTE PTR [eax],al
   0xf77eae1a:  add    BYTE PTR [eax],al
   0xf77eae1c:  add    BYTE PTR [eax],al
   0xf77eae1e:  add    BYTE PTR [eax],al
   0xf77eae20:  add    BYTE PTR [eax],al
   0xf77eae22:  add    BYTE PTR [eax],al
   0xf77eae24:  add    BYTE PTR [eax],al
   0xf77eae26:  add    BYTE PTR [eax],al
   0xf77eae28:  add    BYTE PTR [eax],al
   0xf77eae2a:  add    BYTE PTR [eax],al
   0xf77eae2c:  add    BYTE PTR [eax],al
   0xf77eae2e:  add    BYTE PTR [eax],al
   0xf77eae30:  add    BYTE PTR [eax],al
   0xf77eae32:  add    BYTE PTR [eax],al
   0xf77eae34:  add    BYTE PTR [eax],al
   0xf77eae36:  add    BYTE PTR [eax],al
   0xf77eae38:  add    BYTE PTR [eax],al
   0xf77eae3a:  add    BYTE PTR [eax],al
   0xf77eae3c:  add    BYTE PTR [eax],al
   0xf77eae3e:  add    BYTE PTR [eax],al
   0xf77eae40:  add    BYTE PTR [eax],al
   0xf77eae42:  add    BYTE PTR [eax],al
   0xf77eae44:  add    BYTE PTR [eax],al
   0xf77eae46:  add    BYTE PTR [eax],al
   0xf77eae48:  add    BYTE PTR [eax],al
   0xf77eae4a:  add    BYTE PTR [eax],al
   0xf77eae4c:  add    BYTE PTR [eax],al
   0xf77eae4e:  add    BYTE PTR [eax],al
   0xf77eae50:  add    BYTE PTR [eax],al
   0xf77eae52:  add    BYTE PTR [eax],al
   0xf77eae54:  add    BYTE PTR [eax],al
   0xf77eae56:  add    BYTE PTR [eax],al
   0xf77eae58:  add    BYTE PTR [eax],al
   0xf77eae5a:  add    BYTE PTR [eax],al
   0xf77eae5c:  add    BYTE PTR [eax],al
   0xf77eae5e:  add    BYTE PTR [eax],al
   0xf77eae60:  add    BYTE PTR [eax],al
   0xf77eae62:  add    BYTE PTR [eax],al
   0xf77eae64:  add    BYTE PTR [eax],al
   0xf77eae66:  add    BYTE PTR [eax],al
   0xf77eae68:  add    BYTE PTR [eax],al
   0xf77eae6a:  add    BYTE PTR [eax],al
   0xf77eae6c:  add    BYTE PTR [eax],al
   0xf77eae6e:  add    BYTE PTR [eax],al
   0xf77eae70:  add    BYTE PTR [eax],al
   0xf77eae72:  add    BYTE PTR [eax],al
   0xf77eae74:  add    BYTE PTR [eax],al
   0xf77eae76:  add    BYTE PTR [eax],al
   0xf77eae78:  add    BYTE PTR [eax],al
   0xf77eae7a:  add    BYTE PTR [eax],al
   0xf77eae7c:  add    BYTE PTR [eax],al
   0xf77eae7e:  add    BYTE PTR [eax],al
   0xf77eae80:  add    BYTE PTR [eax],al
   0xf77eae82:  add    BYTE PTR [eax],al
   0xf77eae84:  add    BYTE PTR [eax],al
   0xf77eae86:  add    BYTE PTR [eax],al
   0xf77eae88:  add    BYTE PTR [eax],al
   0xf77eae8a:  add    BYTE PTR [eax],al
   0xf77eae8c:  add    BYTE PTR [eax],al
   0xf77eae8e:  add    BYTE PTR [eax],al
   0xf77eae90:  add    BYTE PTR [eax],al
   0xf77eae92:  add    BYTE PTR [eax],al
   0xf77eae94:  add    BYTE PTR [eax],al
   0xf77eae96:  add    BYTE PTR [eax],al
   0xf77eae98:  add    BYTE PTR [eax],al
   0xf77eae9a:  add    BYTE PTR [eax],al
   0xf77eae9c:  add    BYTE PTR [eax],al
   0xf77eae9e:  add    BYTE PTR [eax],al
   0xf77eaea0:  add    BYTE PTR [eax],al
   0xf77eaea2:  add    BYTE PTR [eax],al
   0xf77eaea4:  add    BYTE PTR [eax],al
   0xf77eaea6:  add    BYTE PTR [eax],al
   0xf77eaea8:  add    BYTE PTR [eax],al
   0xf77eaeaa:  add    BYTE PTR [eax],al
   0xf77eaeac:  add    BYTE PTR [eax],al
   0xf77eaeae:  add    BYTE PTR [eax],al
   0xf77eaeb0:  add    BYTE PTR [eax],al
   0xf77eaeb2:  add    BYTE PTR [eax],al
   0xf77eaeb4:  add    BYTE PTR [eax],al
   0xf77eaeb6:  add    BYTE PTR [eax],al
   0xf77eaeb8:  add    BYTE PTR [eax],al
   0xf77eaeba:  add    BYTE PTR [eax],al
   0xf77eaebc:  add    BYTE PTR [eax],al
   0xf77eaebe:  add    BYTE PTR [eax],al
   0xf77eaec0:  add    BYTE PTR [eax],al
   0xf77eaec2:  add    BYTE PTR [eax],al
   0xf77eaec4:  add    BYTE PTR [eax],al
   0xf77eaec6:  add    BYTE PTR [eax],al
   0xf77eaec8:  add    BYTE PTR [eax],al
   0xf77eaeca:  add    BYTE PTR [eax],al
   0xf77eaecc:  add    BYTE PTR [eax],al
   0xf77eaece:  add    BYTE PTR [eax],al
   0xf77eaed0:  add    BYTE PTR [eax],al
   0xf77eaed2:  add    BYTE PTR [eax],al
   0xf77eaed4:  add    BYTE PTR [eax],al
   0xf77eaed6:  add    BYTE PTR [eax],al
   0xf77eaed8:  add    BYTE PTR [eax],al
   0xf77eaeda:  add    BYTE PTR [eax],al
   0xf77eaedc:  add    BYTE PTR [eax],al
   0xf77eaede:  add    BYTE PTR [eax],al
   0xf77eaee0:  add    BYTE PTR [eax],al
   0xf77eaee2:  add    BYTE PTR [eax],al
   0xf77eaee4:  add    BYTE PTR [eax],al
   0xf77eaee6:  add    BYTE PTR [eax],al
   0xf77eaee8:  add    BYTE PTR [eax],al
   0xf77eaeea:  add    BYTE PTR [eax],al
   0xf77eaeec:  add    BYTE PTR [eax],al
   0xf77eaeee:  add    BYTE PTR [eax],al
   0xf77eaef0:  add    BYTE PTR [eax],al
   0xf77eaef2:  add    BYTE PTR [eax],al
   0xf77eaef4:  add    BYTE PTR [eax],al
   0xf77eaef6:  add    BYTE PTR [eax],al
   0xf77eaef8:  add    BYTE PTR [eax],al
   0xf77eaefa:  add    BYTE PTR [eax],al
   0xf77eaefc:  add    BYTE PTR [eax],al
   0xf77eaefe:  add    BYTE PTR [eax],al
   0xf77eaf00:  add    BYTE PTR [eax],al
   0xf77eaf02:  add    BYTE PTR [eax],al
   0xf77eaf04:  add    BYTE PTR [eax],al
   0xf77eaf06:  add    BYTE PTR [eax],al
   0xf77eaf08:  add    BYTE PTR [eax],al
   0xf77eaf0a:  add    BYTE PTR [eax],al
   0xf77eaf0c:  add    BYTE PTR [eax],al
   0xf77eaf0e:  add    BYTE PTR [eax],al
   0xf77eaf10:  add    BYTE PTR [eax],al
   0xf77eaf12:  add    BYTE PTR [eax],al
   0xf77eaf14:  add    BYTE PTR [eax],al
   0xf77eaf16:  add    BYTE PTR [eax],al
   0xf77eaf18:  add    BYTE PTR [eax],al
   0xf77eaf1a:  add    BYTE PTR [eax],al
   0xf77eaf1c:  add    BYTE PTR [eax],al
   0xf77eaf1e:  add    BYTE PTR [eax],al
   0xf77eaf20:  add    BYTE PTR [eax],al
   0xf77eaf22:  add    BYTE PTR [eax],al
   0xf77eaf24:  add    BYTE PTR [eax],al
   0xf77eaf26:  add    BYTE PTR [eax],al
   0xf77eaf28:  add    BYTE PTR [eax],al
   0xf77eaf2a:  add    BYTE PTR [eax],al
   0xf77eaf2c:  add    BYTE PTR [eax],al
   0xf77eaf2e:  add    BYTE PTR [eax],al
   0xf77eaf30:  add    BYTE PTR [eax],al
   0xf77eaf32:  add    BYTE PTR [eax],al
   0xf77eaf34:  add    BYTE PTR [eax],al
   0xf77eaf36:  add    BYTE PTR [eax],al
   0xf77eaf38:  add    BYTE PTR [eax],al
   0xf77eaf3a:  add    BYTE PTR [eax],al
   0xf77eaf3c:  add    BYTE PTR [eax],al
   0xf77eaf3e:  add    BYTE PTR [eax],al
   0xf77eaf40:  add    BYTE PTR [eax],al
   0xf77eaf42:  add    BYTE PTR [eax],al
   0xf77eaf44:  add    BYTE PTR [eax],al
   0xf77eaf46:  add    BYTE PTR [eax],al
   0xf77eaf48:  add    BYTE PTR [eax],al
   0xf77eaf4a:  add    BYTE PTR [eax],al
   0xf77eaf4c:  add    BYTE PTR [eax],al
   0xf77eaf4e:  add    BYTE PTR [eax],al
   0xf77eaf50:  add    BYTE PTR [eax],al
   0xf77eaf52:  add    BYTE PTR [eax],al
   0xf77eaf54:  add    BYTE PTR [eax],al
   0xf77eaf56:  add    BYTE PTR [eax],al
   0xf77eaf58:  add    BYTE PTR [eax],al
   0xf77eaf5a:  add    BYTE PTR [eax],al
   0xf77eaf5c:  add    BYTE PTR [eax],al
   0xf77eaf5e:  add    BYTE PTR [eax],al
   0xf77eaf60:  add    BYTE PTR [eax],al
   0xf77eaf62:  add    BYTE PTR [eax],al
   0xf77eaf64:  add    BYTE PTR [eax],al
   0xf77eaf66:  add    BYTE PTR [eax],al
   0xf77eaf68:  add    BYTE PTR [eax],al
   0xf77eaf6a:  add    BYTE PTR [eax],al
   0xf77eaf6c:  add    BYTE PTR [eax],al
   0xf77eaf6e:  add    BYTE PTR [eax],al
   0xf77eaf70:  add    BYTE PTR [eax],al
   0xf77eaf72:  add    BYTE PTR [eax],al
   0xf77eaf74:  add    BYTE PTR [eax],al
   0xf77eaf76:  add    BYTE PTR [eax],al
   0xf77eaf78:  add    BYTE PTR [eax],al
   0xf77eaf7a:  add    BYTE PTR [eax],al
   0xf77eaf7c:  add    BYTE PTR [eax],al
   0xf77eaf7e:  add    BYTE PTR [eax],al
   0xf77eaf80:  add    BYTE PTR [eax],al
   0xf77eaf82:  add    BYTE PTR [eax],al
   0xf77eaf84:  add    BYTE PTR [eax],al
   0xf77eaf86:  add    BYTE PTR [eax],al
   0xf77eaf88:  add    BYTE PTR [eax],al
   0xf77eaf8a:  add    BYTE PTR [eax],al
   0xf77eaf8c:  add    BYTE PTR [eax],al
   0xf77eaf8e:  add    BYTE PTR [eax],al
   0xf77eaf90:  add    BYTE PTR [eax],al
   0xf77eaf92:  add    BYTE PTR [eax],al
   0xf77eaf94:  add    BYTE PTR [eax],al
   0xf77eaf96:  add    BYTE PTR [eax],al
   0xf77eaf98:  add    BYTE PTR [eax],al
   0xf77eaf9a:  add    BYTE PTR [eax],al
   0xf77eaf9c:  add    BYTE PTR [eax],al
   0xf77eaf9e:  add    BYTE PTR [eax],al
   0xf77eafa0:  add    BYTE PTR [eax],al
   0xf77eafa2:  add    BYTE PTR [eax],al
   0xf77eafa4:  add    BYTE PTR [eax],al
   0xf77eafa6:  add    BYTE PTR [eax],al
   0xf77eafa8:  add    BYTE PTR [eax],al
   0xf77eafaa:  add    BYTE PTR [eax],al
   0xf77eafac:  add    BYTE PTR [eax],al
   0xf77eafae:  add    BYTE PTR [eax],al
   0xf77eafb0:  add    BYTE PTR [eax],al
   0xf77eafb2:  add    BYTE PTR [eax],al
   0xf77eafb4:  add    BYTE PTR [eax],al
   0xf77eafb6:  add    BYTE PTR [eax],al
   0xf77eafb8:  add    BYTE PTR [eax],al
   0xf77eafba:  add    BYTE PTR [eax],al
   0xf77eafbc:  add    BYTE PTR [eax],al
   0xf77eafbe:  add    BYTE PTR [eax],al
   0xf77eafc0:  add    BYTE PTR [eax],al
   0xf77eafc2:  add    BYTE PTR [eax],al
   0xf77eafc4:  add    BYTE PTR [eax],al
   0xf77eafc6:  add    BYTE PTR [eax],al
   0xf77eafc8:  add    BYTE PTR [eax],al
   0xf77eafca:  add    BYTE PTR [eax],al
   0xf77eafcc:  add    BYTE PTR [eax],al
   0xf77eafce:  add    BYTE PTR [eax],al
   0xf77eafd0:  add    BYTE PTR [eax],al
   0xf77eafd2:  add    BYTE PTR [eax],al
   0xf77eafd4:  add    BYTE PTR [eax],al
   0xf77eafd6:  add    BYTE PTR [eax],al
   0xf77eafd8:  add    BYTE PTR [eax],al
   0xf77eafda:  add    BYTE PTR [eax],al
   0xf77eafdc:  add    BYTE PTR [eax],al
   0xf77eafde:  add    BYTE PTR [eax],al
   0xf77eafe0:  add    BYTE PTR [eax],al
   0xf77eafe2:  add    BYTE PTR [eax],al
   0xf77eafe4:  add    BYTE PTR [eax],al
   0xf77eafe6:  add    BYTE PTR [eax],al
   0xf77eafe8:  add    BYTE PTR [eax],al
   0xf77eafea:  add    BYTE PTR [eax],al
   0xf77eafec:  add    BYTE PTR [eax],al
   0xf77eafee:  add    BYTE PTR [eax],al
   0xf77eaff0:  add    BYTE PTR [eax],al
   0xf77eaff2:  add    BYTE PTR [eax],al
   0xf77eaff4:  add    BYTE PTR [eax],al
   0xf77eaff6:  add    BYTE PTR [eax],al
   0xf77eaff8:  add    BYTE PTR [eax],al
   0xf77eaffa:  add    BYTE PTR [eax],al
   0xf77eaffc:  add    BYTE PTR [eax],al
   0xf77eaffe:  add    BYTE PTR [eax],al
   0xf77eb000:  Cannot access memory at address 0xf77eb000

